
9aaaf200-2450-11e4-abe2-0002a5d5c51b.elf:     file format elf64-littleaarch64
9aaaf200-2450-11e4-abe2-0002a5d5c51b.elf
architecture: aarch64, flags 0x00000150:
HAS_SYMS, DYNAMIC, D_PAGED
start address 0x000000000000040c

Program Header:
    LOAD off    0x0000000000001000 vaddr 0x0000000000000000 paddr 0x0000000000000000 align 2**12
         filesz 0x0000000000019008 memsz 0x0000000000019008 flags r-x
    LOAD off    0x000000000001b000 vaddr 0x000000000001a000 paddr 0x000000000001a000 align 2**12
         filesz 0x00000000000006d0 memsz 0x000000000000c178 flags rw-
 DYNAMIC off    0x000000000001b000 vaddr 0x000000000001a000 paddr 0x000000000001a000 align 2**3
         filesz 0x0000000000000110 memsz 0x0000000000000110 flags rw-
   STACK off    0x0000000000000000 vaddr 0x0000000000000000 paddr 0x0000000000000000 align 2**4
         filesz 0x0000000000000000 memsz 0x0000000000000000 flags rw-

Dynamic Section:
  HASH                 0x0000000000018c60
  GNU_HASH             0x0000000000018b28
  STRTAB               0x0000000000018c28
  SYMTAB               0x0000000000018b80
  STRSZ                0x0000000000000036
  SYMENT               0x0000000000000018
  DEBUG                0x0000000000000000
  RELA                 0x0000000000018c90
  RELASZ               0x00000000000005e8
  RELAENT              0x0000000000000018
  FLAGS_1              0x0000000008000000
  RELACOUNT            0x0000000000000025
private flags = 0:

Sections:
Idx Name          Size      VMA               LMA               File off  Algn
  0 .text         000134f0  0000000000000000  0000000000000000  00001000  2**4
                  CONTENTS, ALLOC, LOAD, READONLY, CODE
  1 .eh_frame     000040ec  00000000000134f0  00000000000134f0  000144f0  2**3
                  CONTENTS, ALLOC, LOAD, READONLY, DATA
  2 .rodata       00001546  00000000000175e0  00000000000175e0  000185e0  2**3
                  CONTENTS, ALLOC, LOAD, READONLY, DATA
  3 .gnu.hash     00000034  0000000000018b28  0000000000018b28  00019b28  2**3
                  CONTENTS, ALLOC, LOAD, READONLY, DATA
  4 .ta_head      00000020  0000000000018b60  0000000000018b60  00019b60  2**3
                  CONTENTS, ALLOC, LOAD, READONLY, DATA
  5 .dynsym       000000a8  0000000000018b80  0000000000018b80  00019b80  2**3
                  CONTENTS, ALLOC, LOAD, READONLY, DATA
  6 .dynstr       00000036  0000000000018c28  0000000000018c28  00019c28  2**0
                  CONTENTS, ALLOC, LOAD, READONLY, DATA
  7 .hash         00000030  0000000000018c60  0000000000018c60  00019c60  2**3
                  CONTENTS, ALLOC, LOAD, READONLY, DATA
  8 .rela.dyn     00000378  0000000000018c90  0000000000018c90  00019c90  2**3
                  CONTENTS, ALLOC, LOAD, READONLY, DATA
  9 .dynamic      00000110  000000000001a000  000000000001a000  0001b000  2**3
                  CONTENTS, ALLOC, LOAD, DATA
 10 .got          000000f0  000000000001a110  000000000001a110  0001b110  2**3
                  CONTENTS, ALLOC, LOAD, DATA
 11 .rela.got     00000270  000000000001a200  000000000001a200  0001b200  2**3
                  CONTENTS, ALLOC, LOAD, READONLY, DATA
 12 .data         00000260  000000000001a470  000000000001a470  0001b470  2**3
                  CONTENTS, ALLOC, LOAD, DATA
 13 .bss          0000baa8  000000000001a6d0  000000000001a6d0  0001b6d0  2**3
                  ALLOC
 14 .debug_info   00024962  0000000000000000  0000000000000000  0001b6d0  2**0
                  CONTENTS, READONLY, DEBUGGING, OCTETS
 15 .debug_abbrev 000052b1  0000000000000000  0000000000000000  00040032  2**0
                  CONTENTS, READONLY, DEBUGGING, OCTETS
 16 .debug_loc    0000087a  0000000000000000  0000000000000000  000452e3  2**0
                  CONTENTS, READONLY, DEBUGGING, OCTETS
 17 .debug_aranges 00000a10  0000000000000000  0000000000000000  00045b60  2**4
                  CONTENTS, READONLY, DEBUGGING, OCTETS
 18 .debug_ranges 00000050  0000000000000000  0000000000000000  00046570  2**0
                  CONTENTS, READONLY, DEBUGGING, OCTETS
 19 .debug_macro  0001c634  0000000000000000  0000000000000000  000465c0  2**0
                  CONTENTS, READONLY, DEBUGGING, OCTETS
 20 .debug_line   0000fa1d  0000000000000000  0000000000000000  00062bf4  2**0
                  CONTENTS, READONLY, DEBUGGING, OCTETS
 21 .debug_str    0001d574  0000000000000000  0000000000000000  00072611  2**0
                  CONTENTS, READONLY, DEBUGGING, OCTETS
 22 .comment      0000005e  0000000000000000  0000000000000000  0008fb85  2**0
                  CONTENTS, READONLY
 23 .debug_line_str 0000093b  0000000000000000  0000000000000000  0008fbe3  2**0
                  CONTENTS, READONLY, DEBUGGING, OCTETS
 24 .debug_loclists 000151c1  0000000000000000  0000000000000000  0009051e  2**0
                  CONTENTS, READONLY, DEBUGGING, OCTETS
 25 .debug_rnglists 00000a61  0000000000000000  0000000000000000  000a56df  2**0
                  CONTENTS, READONLY, DEBUGGING, OCTETS
SYMBOL TABLE:
0000000000000000 l    d  .text	0000000000000000 .text
00000000000134f0 l    d  .eh_frame	0000000000000000 .eh_frame
00000000000175e0 l    d  .rodata	0000000000000000 .rodata
0000000000018b28 l    d  .gnu.hash	0000000000000000 .gnu.hash
0000000000018b60 l    d  .ta_head	0000000000000000 .ta_head
0000000000018b80 l    d  .dynsym	0000000000000000 .dynsym
0000000000018c28 l    d  .dynstr	0000000000000000 .dynstr
0000000000018c60 l    d  .hash	0000000000000000 .hash
0000000000018c90 l    d  .rela.dyn	0000000000000000 .rela.dyn
000000000001a000 l    d  .dynamic	0000000000000000 .dynamic
000000000001a110 l    d  .got	0000000000000000 .got
000000000001a200 l    d  .rela.got	0000000000000000 .rela.got
000000000001a470 l    d  .data	0000000000000000 .data
000000000001a6d0 l    d  .bss	0000000000000000 .bss
0000000000000000 l    d  .debug_info	0000000000000000 .debug_info
0000000000000000 l    d  .debug_abbrev	0000000000000000 .debug_abbrev
0000000000000000 l    d  .debug_loc	0000000000000000 .debug_loc
0000000000000000 l    d  .debug_aranges	0000000000000000 .debug_aranges
0000000000000000 l    d  .debug_ranges	0000000000000000 .debug_ranges
0000000000000000 l    d  .debug_macro	0000000000000000 .debug_macro
0000000000000000 l    d  .debug_line	0000000000000000 .debug_line
0000000000000000 l    d  .debug_str	0000000000000000 .debug_str
0000000000000000 l    d  .comment	0000000000000000 .comment
0000000000000000 l    d  .debug_line_str	0000000000000000 .debug_line_str
0000000000000000 l    d  .debug_loclists	0000000000000000 .debug_loclists
0000000000000000 l    d  .debug_rnglists	0000000000000000 .debug_rnglists
0000000000000000 l    df *ABS*	0000000000000000 memcpy.c
0000000000000000 l    df *ABS*	0000000000000000 my_test_ta.c
0000000000017b59 l     O .rodata	0000000000000014 __func__.4589
0000000000017b6d l     O .rodata	0000000000000015 __func__.4594
0000000000017b82 l     O .rodata	0000000000000020 __func__.4601
0000000000017ba2 l     O .rodata	000000000000001a __func__.4605
0000000000017bbc l     O .rodata	000000000000000a __func__.4611
0000000000017bc6 l     O .rodata	000000000000000a __func__.4617
0000000000000000 l    df *ABS*	0000000000000000 user_ta_header.c
00000000000175e8 l     O .rodata	0000000000000004 __compound_literal.7
00000000000175ec l     O .rodata	0000000000000001 __compound_literal.6
00000000000175f0 l     O .rodata	0000000000000004 __compound_literal.5
00000000000175f4 l     O .rodata	0000000000000004 __compound_literal.4
00000000000175f8 l     O .rodata	0000000000000004 __compound_literal.3
00000000000175fc l     O .rodata	0000000000000001 __compound_literal.2
00000000000175fd l     O .rodata	0000000000000001 __compound_literal.1
00000000000175fe l     O .rodata	0000000000000001 __compound_literal.0
0000000000000000 l    df *ABS*	0000000000000000 stack_check.c
0000000000000000 l    df *ABS*	0000000000000000 trace.c
0000000000017d55 l     O .rodata	0000000000000005 lvl_strs.0
0000000000000000 l    df *ABS*	0000000000000000 snprintk.c
000000000000098c l     F .text	0000000000000bc4 kprintf.constprop.0
00000000000176c2 l     O .rodata	0000000000000011 hexdigits
00000000000176d3 l     O .rodata	0000000000000011 HEXDIGITS
0000000000000000 l    df *ABS*	0000000000000000 memchr.c
0000000000000000 l    df *ABS*	0000000000000000 strlen.c
0000000000000000 l    df *ABS*	0000000000000000 trace_ext.c
0000000000000000 l    df *ABS*	0000000000000000 tee_api_objects.c
0000000000000000 l    df *ABS*	0000000000000000 tee_api_panic.c
0000000000003208 l     F .text	000000000000001c check_access
000000000000322c l     F .text	0000000000000010 check_res.constprop.0
00000000000033bc l     F .text	0000000000000024 __utee_check_attr_in_annotation.localalias
0000000000000000 l    df *ABS*	0000000000000000 user_ta_entry.c
0000000000003404 l     F .text	00000000000000b0 _get_fn_array
00000000000034b4 l     F .text	0000000000000090 _fini_iterate_phdr_cb
0000000000003544 l     F .text	0000000000000028 ta_header_get_session
000000000000356c l     F .text	0000000000000070 to_utee_params
00000000000035dc l     F .text	000000000000005c from_utee_params
0000000000003638 l     F .text	0000000000000094 _init_iterate_phdr_cb
0000000000003828 l     F .text	0000000000000094 ta_header_remove_session
0000000000017de1 l     O .rodata	0000000000000016 __func__.0
000000000001a6d0 l     O .bss	0000000000000008 _num_mod_init
000000000001a6d8 l     O .bss	0000000000000001 init_done
000000000001a580 l     O .data	0000000000000010 ta_sessions
000000000001a590 l     O .data	0000000000000010 __phdr_info_head
0000000000000000 l    df *ABS*	0000000000000000 user_ta_entry_compat.c
0000000000003b44 l     F .text	0000000000000064 to_gp11_param
0000000000003ba8 l     F .text	0000000000000064 from_gp11_param
0000000000000000 l    df *ABS*	0000000000000000 utee_syscalls_a64.o
0000000000000000 l    df *ABS*	0000000000000000 abort.c
0000000000000000 l    df *ABS*	0000000000000000 tee_api.c
0000000000004024 l     F .text	000000000000006c copy_param
0000000000004090 l     F .text	0000000000000070 copy_gp11_param
0000000000004100 l     F .text	0000000000000098 check_mem_access_rights_params
0000000000004198 l     F .text	0000000000000044 buf_overlaps_no_share_heap
00000000000041dc l     F .text	00000000000000a8 check_invoke_param
0000000000004284 l     F .text	00000000000000a4 update_out_param
0000000000004328 l     F .text	00000000000000a8 update_out_gp11_param
00000000000045a0 l     F .text	000000000000019c map_tmp_param
000000000001a740 l     O .bss	0000000000000008 tee_api_instance_data
0000000000017620 l     O .rodata	000000000000000b __func__.0
0000000000000000 l    df *ABS*	0000000000000000 tee_api_arith_mpi.c
0000000000005100 l     F .text	0000000000000030 api_panic
0000000000005130 l     F .text	0000000000000030 mpi_panic
0000000000005160 l     F .text	0000000000000098 get_mpi
00000000000051f8 l     F .text	0000000000000064 copy_mpi_to_bigint
000000000000525c l     F .text	000000000000014c bigint_binary
00000000000053a8 l     F .text	0000000000000020 mpi_is_odd
00000000000053c8 l     F .text	0000000000000028 rng_read
00000000000053f0 l     F .text	0000000000000574 mpi_egcd
000000000001a750 l     O .bss	0000000000003800 data.18
0000000000005e9c l     F .text	00000000000001d0 bigint_binary_mod
0000000000017ed8 l     O .rodata	0000000000000008 __func__.15
0000000000017ee0 l     O .rodata	000000000000000e __func__.11
0000000000017eee l     O .rodata	0000000000000009 __func__.2
0000000000017ef7 l     O .rodata	0000000000000012 __func__.17
0000000000017f09 l     O .rodata	000000000000000f __func__.16
0000000000017f18 l     O .rodata	000000000000001f __func__.14
0000000000017f37 l     O .rodata	0000000000000019 __func__.13
0000000000017f50 l     O .rodata	0000000000000012 __func__.7
0000000000017f62 l     O .rodata	0000000000000015 __func__.12
0000000000017f77 l     O .rodata	000000000000000e __func__.10
0000000000017f85 l     O .rodata	000000000000000e __func__.9
0000000000017f93 l     O .rodata	000000000000000e __func__.8
0000000000017fa1 l     O .rodata	0000000000000011 __func__.6
0000000000017fb2 l     O .rodata	0000000000000018 __func__.5
0000000000017fca l     O .rodata	0000000000000011 __func__.4
0000000000017fdb l     O .rodata	000000000000001d __func__.3
0000000000017ff8 l     O .rodata	0000000000000019 __func__.1
0000000000018011 l     O .rodata	0000000000000015 __func__.0
0000000000000000 l    df *ABS*	0000000000000000 tee_api_property.c
0000000000007268 l     F .text	000000000000006c propset_get
00000000000072d4 l     F .text	000000000000002c is_propset_pseudo_handle
0000000000007300 l     F .text	0000000000000140 propget_get_ext_prop
0000000000007440 l     F .text	00000000000001f8 propget_get_property
00000000000176f4 l     O .rodata	0000000000000004 __compound_literal.3
00000000000176f8 l     O .rodata	0000000000000004 __compound_literal.2
00000000000176fc l     O .rodata	0000000000000004 __compound_literal.1
0000000000017700 l     O .rodata	0000000000000004 __compound_literal.0
0000000000000000 l    df *ABS*	0000000000000000 tee_system_pta.c
0000000000008238 l     F .text	0000000000000084 invoke_system_pta
0000000000017704 l     O .rodata	0000000000000010 uuid.2
0000000000017714 l     O .rodata	000000000000000a __func__.1
000000000001771e l     O .rodata	0000000000000017 __func__.0
000000000001df50 l     O .bss	0000000000000008 sess.3
0000000000000000 l    df *ABS*	0000000000000000 tcb.c
0000000000018188 l     O .rodata	0000000000000010 __func__.1
0000000000018198 l     O .rodata	0000000000000010 __func__.0
000000000001df58 l     O .bss	0000000000000008 _tls_size
000000000001df60 l     O .bss	0000000000000008 _tcb
0000000000000000 l    df *ABS*	0000000000000000 assert.c
0000000000000000 l    df *ABS*	0000000000000000 base64.c
000000000001773c l     O .rodata	0000000000000041 base64_table
0000000000000000 l    df *ABS*	0000000000000000 bignum.c
0000000000008ae8 l     F .text	0000000000000064 mpi_get_digit
0000000000008b4c l     F .text	0000000000000068 mpi_select
0000000000008bb4 l     F .text	000000000000001c mpi_montmul.isra.0
0000000000008bd0 l     F .text	0000000000000078 mpi_montred
0000000000008dd8 l     F .text	000000000000006c mbedtls_mpi_resize_clear
0000000000009854 l     F .text	00000000000000a4 add_sub_mpi
000000000000a7d0 l     F .text	00000000000000c4 mpi_check_small_factors
000000000000b1a4 l     F .text	00000000000002a4 mpi_miller_rabin
0000000000017780 l     O .rodata	00000000000002a0 small_prime
0000000000017a20 l     O .rodata	0000000000000024 gcd_pairs
0000000000000000 l    df *ABS*	0000000000000000 bignum_core.c
0000000000000000 l    df *ABS*	0000000000000000 constant_time.c
000000000000cff4 l     F .text	0000000000000020 mbedtls_ct_uchar_mask_of_range
0000000000000000 l    df *ABS*	0000000000000000 platform_util.c
000000000000d7d4 l     F .text	000000000000005c mbedtls_get_unaligned_uint32.localalias
000000000000d830 l     F .text	0000000000000020 mbedtls_put_unaligned_uint32.localalias
000000000001a600 l     O .data	0000000000000008 memset_func
0000000000000000 l    df *ABS*	0000000000000000 bget_malloc.c
000000000000d984 l     F .text	0000000000000024 myrand
000000000000d9a8 l     F .text	0000000000000010 _assert_trap
000000000000d9b8 l     F .text	0000000000000028 bget_buf_size.part.0
000000000000d9e0 l     F .text	0000000000000038 raw_malloc_return_hook.constprop.0
000000000000e278 l     F .text	0000000000000088 stats.constprop.0
00000000000189ce l     O .rodata	000000000000000e __func__.2
00000000000189dc l     O .rodata	0000000000000005 __func__.9
00000000000189e1 l     O .rodata	0000000000000006 __func__.8
00000000000189e7 l     O .rodata	0000000000000005 __func__.6
00000000000189ec l     O .rodata	0000000000000006 __func__.7
00000000000189f2 l     O .rodata	0000000000000006 __func__.5
00000000000189f8 l     O .rodata	0000000000000007 __func__.4
00000000000189ff l     O .rodata	000000000000000f __func__.3
0000000000018a0e l     O .rodata	0000000000000003 CSWTCH.111
0000000000018a11 l     O .rodata	0000000000000014 __func__.1
0000000000018a25 l     O .rodata	0000000000000013 __func__.0
000000000001a608 l     O .data	0000000000000008 next
000000000001df70 l     O .bss	0000000000000008 bchain
000000000001a610 l     O .data	0000000000000038 mypoolset
000000000001a648 l     O .data	0000000000000080 malloc_ctx
0000000000000000 l    df *ABS*	0000000000000000 snprintf.c
0000000000000000 l    df *ABS*	0000000000000000 memmove.c
0000000000000000 l    df *ABS*	0000000000000000 memset.c
0000000000000000 l    df *ABS*	0000000000000000 strcmp.c
0000000000000000 l    df *ABS*	0000000000000000 strlcpy.c
0000000000000000 l    df *ABS*	0000000000000000 mempool.c
0000000000018ac1 l     O .rodata	0000000000000013 __func__.2
0000000000018ad4 l     O .rodata	000000000000000b __func__.1
0000000000018adf l     O .rodata	000000000000000e __func__.0
0000000000000000 l    df *ABS*	0000000000000000 consttime_memcmp.c
0000000000000000 l    df *ABS*	0000000000000000 tee_api_operations.c
000000000000f014 l     F .text	000000000000011c __tee_alg_get_main_alg
000000000000f130 l     F .text	0000000000000250 tee_buffer_update
000000000000f380 l     F .text	000000000000009c __tee_alg_get_class
000000000000f41c l     F .text	00000000000000ec ae_update_helper
000000000000f508 l     F .text	000000000000005c reset_operation_state
000000000000f564 l     F .text	00000000000001e4 set_operation_key2
0000000000017a52 l     O .rodata	0000000000000012 __func__.0
0000000000000000 l    df *ABS*	0000000000000000 
000000000001a000 l     O *ABS*	0000000000000000 _DYNAMIC
000000000001a128 l     O *ABS*	0000000000000000 _GLOBAL_OFFSET_TABLE_
0000000000001754 g     F .text	0000000000000070 putchar
0000000000005ae4 g     F .text	0000000000000008 __GP11_TEE_BigIntConvertFromOctetString
000000000000211c g     F .text	0000000000000110 TEE_PopulateTransientObject
0000000000011910 g     F .text	0000000000000010 __GP11_TEE_AEInit
000000000000c6d0 g     F .text	0000000000000070 mbedtls_mpi_core_add_if
0000000000007044 g     F .text	0000000000000004 TEE_BigIntConvertToFMM
0000000000006898 g     F .text	000000000000000c TEE_BigIntSquareMod
000000000000606c g     F .text	00000000000001a0 TEE_BigIntShiftRight
000000000000e8d0 g     F .text	00000000000000d4 raw_malloc_add_pool
000000000000840c g     F .text	00000000000000e8 tee_invoke_supp_plugin
000000000000cae4 g     F .text	00000000000000b0 mbedtls_mpi_core_fill_random
0000000000008cf0 g     F .text	00000000000000e8 mbedtls_mpi_grow
0000000000010a20 g     F .text	0000000000000070 TEE_DigestUpdate
0000000000007f9c g     F .text	0000000000000130 __GP11_TEE_GetPropertyName
0000000000004fec g     F .text	00000000000000f4 TEE_Realloc
000000000000c5b8 g     F .text	00000000000000dc mbedtls_mpi_core_shift_r
0000000000010858 g     F .text	0000000000000020 TEE_SetOperationKey2
0000000000011698 g     F .text	00000000000000a4 __GP11_TEE_MACComputeFinal
00000000000033e4 g     F .text	0000000000000020 __utee_check_inout_annotation
000000000000e680 g     F .text	0000000000000010 raw_free
0000000000001614 g     F .text	0000000000000100 printf
0000000000006410 g     F .text	000000000000002c TEE_BigIntAbs
00000000000110c8 g     F .text	00000000000000a4 __GP11_TEE_CipherUpdate
000000000000233c g     F .text	000000000000004c TEE_InitRefAttribute
0000000000003d70 g     F .text	000000000000000c _utee_log
00000000000049d8 g     F .text	0000000000000184 TEE_InvokeTACommand
0000000000002424 g     F .text	000000000000004c __GP11_TEE_InitValueAttribute
000000000000323c g     F .text	000000000000004c __utee_check_outbuf_annotation
000000000000c500 g     F .text	00000000000000b8 mbedtls_mpi_core_write_be
0000000000008c5c g     F .text	0000000000000028 mbedtls_mpi_init_mempool
0000000000003ef0 g     F .text	000000000000000c _utee_cryp_random_number_generate
0000000000009314 g     F .text	0000000000000010 mbedtls_mpi_write_binary
0000000000011c1c g     F .text	0000000000000200 TEE_AEEncryptFinal
0000000000000864 g     F .text	0000000000000058 vsnprintk
0000000000009980 g     F .text	0000000000000078 mbedtls_mpi_sub_int
0000000000012614 g     F .text	0000000000000178 __GP11_TEE_AsymmetricDecrypt
000000000000ed38 g     F .text	000000000000005c memmove
000000000000ec0c g     F .text	00000000000000d4 snprintf
0000000000005e1c g     F .text	0000000000000080 TEE_BigIntCmpS32
0000000000004cf8 g     F .text	0000000000000008 __GP11_TEE_MemMove
000000000001a578 g     O .data	0000000000000008 __stack_chk_guard
000000000000d564 g     F .text	0000000000000204 mbedtls_ct_rsaes_pkcs1_v15_unpadding
00000000000023d8 g     F .text	000000000000004c TEE_InitValueAttribute
0000000000008e44 g     F .text	0000000000000118 mbedtls_mpi_shrink
0000000000004d10 g     F .text	0000000000000008 __GP11_TEE_MemFill
000000000000643c g     F .text	000000000000000c TEE_BigIntAdd
0000000000003e90 g     F .text	000000000000000c _utee_cryp_obj_restrict_usage
0000000000002388 g     F .text	0000000000000050 __GP11_TEE_InitRefAttribute
0000000000017608 g     O .rodata	0000000000000008 ta_heap_size
000000000000208c g     F .text	0000000000000090 TEE_ResetTransientObject
0000000000003f38 g     F .text	000000000000000c _utee_asymm_operate
0000000000008898 g     F .text	0000000000000018 _base64_enc_len
0000000000009c68 g     F .text	000000000000020c mbedtls_mpi_read_string
00000000000026d0 g     F .text	00000000000000d4 __GP11_TEE_GenerateKey
0000000000010e4c g     F .text	00000000000000e0 TEE_CipherInit
000000000000c784 g     F .text	00000000000001cc mbedtls_mpi_core_mla
0000000000006454 g     F .text	00000000000000e4 TEE_BigIntNeg
0000000000003f8c g     F .text	000000000000000c _utee_storage_free_enum
0000000000000000 g       .text	0000000000000000 __text_start
000000000001df78 g     O .bss	0000000000000200 g_public_key
0000000000008158 g     F .text	00000000000000e0 TEE_GetNextProperty
0000000000002c08 g     F .text	0000000000000050 TEE_StartPersistentObjectEnumerator
0000000000009434 g     F .text	0000000000000030 mbedtls_mpi_shift_r
000000000000ebf4 g     F .text	0000000000000018 malloc_buffer_overlaps_heap
0000000000003e3c g     F .text	000000000000000c _utee_hash_init
0000000000006880 g     F .text	000000000000000c TEE_BigIntSubMod
000000000000ba18 g     F .text	000000000000034c mbedtls_mpi_gen_prime
0000000000007cc8 g     F .text	000000000000009c TEE_GetPropertyAsBinaryBlock
000000000000911c g     F .text	000000000000002c mbedtls_mpi_get_bit
000000000000cb94 g     F .text	00000000000000f8 mbedtls_mpi_core_random
0000000000017600 g     O .rodata	0000000000000008 __ta_no_share_heap_size
00000000000092a8 g     F .text	000000000000005c mbedtls_mpi_read_binary
000000000001184c g     F .text	00000000000000c4 TEE_AEInit
00000000000006b8 g     F .text	00000000000000e4 trace_printf
000000000000a8bc g     F .text	000000000000000c mbedtls_mpi_montmul
0000000000003ff8 g     F .text	000000000000000c _utee_cache_operation
0000000000000000 g     F .text	00000000000000ec memcpy
000000000000ccb4 g     F .text	0000000000000260 mbedtls_mpi_core_exp_mod
0000000000007048 g     F .text	00000000000000d4 TEE_BigIntConvertFromFMM
0000000000003224 g     F .text	0000000000000008 TEE_Panic
00000000000108c4 g     F .text	000000000000015c TEE_CopyOperation
0000000000001714 g     F .text	0000000000000040 puts
000000000000711c g     F .text	000000000000014c TEE_BigIntComputeFMM
000000000000ebb0 g     F .text	0000000000000014 malloc_get_stats
0000000000004e38 g     F .text	0000000000000028 TEE_GetREETime
000000000000eb74 g     F .text	000000000000003c raw_malloc_get_stats
0000000000002b28 g     F .text	0000000000000090 TEE_AllocatePersistentObjectEnumerator
000000000001a470 g     O .data	0000000000000108 ta_props
0000000000012184 g     F .text	000000000000018c TEE_AsymmetricEncrypt
0000000000004f84 g     F .text	0000000000000008 __GP11_TEE_Malloc
0000000000004890 g     F .text	0000000000000148 __GP11_TEE_OpenTASession
00000000000032d4 g     F .text	0000000000000030 __utee_check_instring_annotation
000000000000e7f4 g     F .text	000000000000001c malloc
0000000000007f88 g     F .text	0000000000000004 TEE_FreePropertyEnumerator
000000000000d058 g     F .text	0000000000000010 mbedtls_ct_mpi_uint_mask
0000000000010f2c g     F .text	0000000000000008 __GP11_TEE_CipherInit
00000000000025fc g     F .text	00000000000000d4 TEE_GenerateKey
000000000000ece0 g     F .text	0000000000000058 vsnprintf
000000000001a6cc g     O .data	0000000000000004 trace_level
0000000000002888 g     F .text	0000000000000008 __GP11_TEE_OpenPersistentObject
0000000000005d84 g     F .text	0000000000000098 TEE_BigIntCmp
00000000000175e0 g     O .rodata	0000000000000008 ta_num_props
000000000000e044 g     F .text	00000000000000d0 bgetr
0000000000003f50 g     F .text	000000000000000c _utee_storage_obj_open
0000000000004d04 g     F .text	0000000000000008 __GP11_TEE_MemCompare
000000000000ef88 g     F .text	000000000000001c mempool_free
0000000000010f34 g     F .text	0000000000000194 TEE_CipherUpdate
0000000000003e48 g     F .text	000000000000000c _utee_hash_update
0000000000005aec g     F .text	00000000000000c8 TEE_BigIntConvertToOctetString
0000000000010458 g     F .text	00000000000001b0 TEE_GetOperationInfoMultiple
0000000000009228 g     F .text	0000000000000008 mbedtls_mpi_bitlen
0000000000006214 g     F .text	0000000000000084 TEE_BigIntGetBit
0000000000017610 g     O .rodata	0000000000000003 trace_ext_prefix
0000000000003fb0 g     F .text	000000000000000c _utee_storage_next_enum
000000000000e670 g     F .text	0000000000000010 raw_malloc
000000000000dcf8 g     F .text	0000000000000088 bgetz
000000000000d068 g     F .text	0000000000000018 mbedtls_ct_size_bool_eq
0000000000004ce8 g     F .text	000000000000000c TEE_GetInstanceData
0000000000004d40 g     F .text	000000000000003c TEE_Wait
00000000000099f8 g     F .text	00000000000001bc mbedtls_mpi_mul_mpi
000000000000620c g     F .text	0000000000000008 __GP11_TEE_BigIntShiftRight
000000000000d8ac g     F .text	0000000000000020 mbedtls_put_unaligned_uint64
00000000000050f0 g     F .text	0000000000000008 TEE_CacheFlush
000000000000049c g     F .text	000000000000021c trace_vprintf
0000000000000218 g     F .text	0000000000000024 TA_DestroyEntryPoint
0000000000008c48 g     F .text	0000000000000014 mbedtls_mpi_init
0000000000003f68 g     F .text	000000000000000c _utee_storage_obj_del
00000000000091d4 g     F .text	0000000000000054 mbedtls_mpi_lsb
0000000000011384 g     F .text	00000000000000b0 __GP11_TEE_CipherDoFinal
0000000000008840 g     F .text	0000000000000044 _assert_log
0000000000011b1c g     F .text	0000000000000100 __GP11_TEE_AEUpdate
0000000000003e24 g     F .text	000000000000000c _utee_cryp_state_copy
0000000000007024 g     F .text	0000000000000008 TEE_BigIntFMMContextSizeInU32
0000000000008350 g     F .text	00000000000000bc tee_unmap
000000000001173c g     F .text	0000000000000104 TEE_MACCompareFinal
000000000000d09c g     F .text	0000000000000030 mbedtls_ct_uint_if
0000000000002ac4 g     F .text	000000000000005c TEE_RenamePersistentObject
0000000000010a98 g     F .text	000000000000016c TEE_DigestDoFinal
000000000000222c g     F .text	0000000000000110 __GP11_TEE_PopulateTransientObject
0000000000005964 g     F .text	0000000000000050 _TEE_MathAPI_Init
000000000000d8cc g     F .text	0000000000000098 mbedtls_xor
00000000000084f4 g     F .text	0000000000000240 __utee_tcb_init
00000000000098f8 g     F .text	0000000000000008 mbedtls_mpi_add_mpi
0000000000004004 g     F .text	0000000000000020 abort
000000000000b448 g     F .text	0000000000000094 mbedtls_mpi_random
0000000000000440 g     F .text	0000000000000030 __stack_chk_fail
000000000000339c g     F .text	0000000000000020 __utee_check_out_annotation
000000000001e178 g     O .bss	0000000000008000 ta_heap
00000000000068a4 g     F .text	0000000000000150 TEE_BigIntInvMod
0000000000010a90 g     F .text	0000000000000008 __GP11_TEE_DigestUpdate
00000000000036cc g     F .text	000000000000014c __utee_call_elf_init_fn
0000000000001920 g     F .text	00000000000000c8 __GP11_TEE_GetObjectInfo
00000000000002ac g     F .text	0000000000000024 TA_CloseSessionEntryPoint
00000000000002d0 g     F .text	000000000000013c __GP11_TA_InvokeCommandEntryPoint
0000000000003dac g     F .text	000000000000000c _utee_close_ta_session
0000000000012484 g     F .text	0000000000000190 TEE_AsymmetricDecrypt
0000000000006fec g     F .text	0000000000000008 __GP11_TEE_BigIntInitFMMContext
0000000000001a98 g     F .text	00000000000000c0 __GP11_TEE_GetObjectInfo1
00000000000027a4 g     F .text	00000000000000e4 TEE_OpenPersistentObject
000000000000cf44 g     F .text	0000000000000028 mbedtls_mpi_core_check_zero_ct
0000000000009900 g     F .text	0000000000000008 mbedtls_mpi_sub_mpi
000000000000efa4 g     F .text	0000000000000070 consttime_memcmp
0000000000003d64 g     F .text	000000000000000c _utee_return
0000000000003d7c g     F .text	000000000000000c __utee_panic
000000000000d014 g     F .text	0000000000000034 mbedtls_ct_memcmp
0000000000008734 g     F .text	000000000000001c __tls_get_addr
0000000000000434 g     F .text	000000000000000c TA_InvokeCommandEntryPoint
0000000000003818 g     F .text	0000000000000010 __utee_call_elf_fini_fn
000000000000e898 g     F .text	0000000000000014 free_wipe
000000000000eed4 g     F .text	0000000000000064 mempool_alloc
0000000000003d58 g     F .text	000000000000000c _utee_panic
000000000000e8b4 g     F .text	000000000000001c raw_malloc_init_ctx
000000000000ef38 g     F .text	0000000000000050 mempool_calloc
0000000000003fec g     F .text	000000000000000c _utee_cryp_obj_generate_key
0000000000003fd4 g     F .text	000000000000000c _utee_storage_obj_trunc
0000000000002568 g     F .text	0000000000000094 TEE_CopyObjectAttributes
000000000001a5a0 g     O .data	0000000000000060 tee_props
0000000000003ddc g     F .text	000000000000000c _utee_unmask_cancellation
0000000000007f34 g     F .text	000000000000000c TEE_ResetPropertyEnumerator
000000000000e810 g     F .text	0000000000000020 calloc
0000000000004e60 g     F .text	0000000000000124 TEE_Malloc
0000000000004518 g     F .text	0000000000000088 TEE_CheckMemoryAccessRights
000000000000d7d4 g     F .text	000000000000005c mbedtls_get_unaligned_uint32
0000000000007d64 g     F .text	00000000000000e8 TEE_GetPropertyAsUUID
0000000000003d88 g     F .text	000000000000000c _utee_get_property
0000000000010c04 g     F .text	00000000000000a4 __GP11_TEE_DigestDoFinal
0000000000006310 g     F .text	00000000000000b0 TEE_BigIntSetBit
00000000000090b4 g     F .text	0000000000000068 mbedtls_mpi_lset
0000000000010878 g     F .text	000000000000004c __GP11_TEE_SetOperationKey2
0000000000002ea0 g     F .text	00000000000000c8 TEE_ReadObjectData
0000000000001c2c g     F .text	0000000000000104 TEE_GetObjectBufferAttribute
0000000000000428 g     F .text	000000000000000c TA_OpenSessionEntryPoint
000000000000cf14 g     F .text	0000000000000030 mbedtls_mpi_core_sub_int
000000000000023c g     F .text	0000000000000070 __GP11_TA_OpenSessionEntryPoint
000000000000f748 g     F .text	0000000000000040 TEE_FreeOperation
0000000000008750 g     F .text	00000000000000f0 dl_iterate_phdr
0000000000026178 g       .bss	0000000000000000 __ftrace_buf_end
000000000001a738 g     O .bss	0000000000000004 ta_param_types
000000000000a394 g     F .text	0000000000000078 mbedtls_mpi_div_int
00000000000017c4 g     F .text	0000000000000050 __utee_from_attr
000000000000c454 g     F .text	00000000000000ac mbedtls_mpi_core_write_le
000000000000b934 g     F .text	00000000000000e4 mbedtls_mpi_is_prime_ext
0000000000006f44 g     F .text	0000000000000098 TEE_BigIntIsProbablePrime
000000000000d830 g     F .text	0000000000000020 mbedtls_put_unaligned_uint32
0000000000009bb4 g     F .text	00000000000000b4 mbedtls_mpi_mul_int
0000000000002a50 g     F .text	0000000000000048 TEE_CloseAndDeletePersistentObject1
000000000000a8cc g     F .text	0000000000000698 mbedtls_mpi_exp_mod
000000000000d278 g     F .text	00000000000000bc mbedtls_mpi_safe_cond_assign
0000000000007638 g     F .text	0000000000000264 TEE_GetPropertyAsString
000000000000d46c g     F .text	00000000000000f8 mbedtls_mpi_lt_mpi_ct
0000000000011ef4 g     F .text	00000000000001d4 TEE_AEDecryptFinal
00000000000059b4 g     F .text	0000000000000060 TEE_BigIntInit
0000000000005bb4 g     F .text	0000000000000064 __GP11_TEE_BigIntConvertToOctetString
00000000000063c0 g     F .text	0000000000000050 TEE_BigIntAssign
0000000000003304 g     F .text	000000000000004c __utee_check_outstring_annotation
0000000000004cf4 g     F .text	0000000000000004 TEE_MemMove
000000000000d964 g     F .text	0000000000000020 mbedtls_platform_zeroize
0000000000005a1c g     F .text	00000000000000c8 TEE_BigIntConvertFromOctetString
0000000000003f2c g     F .text	000000000000000c _utee_authenc_dec_final
0000000000009464 g     F .text	000000000000009c mbedtls_mpi_cmp_abs
0000000000003fbc g     F .text	000000000000000c _utee_storage_obj_read
0000000000011434 g     F .text	00000000000000a4 TEE_MACInit
000000000001278c g     F .text	000000000000016c TEE_AsymmetricSignDigest
000000000000159c g     F .text	000000000000002c memchr
0000000000004458 g     F .text	0000000000000060 TEE_UnmaskCancellation
0000000000001864 g     F .text	00000000000000bc TEE_GetObjectInfo
000000000000bd64 g     F .text	0000000000000420 mbedtls_mpi_self_test
0000000000003288 g     F .text	000000000000004c __utee_check_gp11_outbuf_annotation
0000000000003fe0 g     F .text	000000000000000c _utee_storage_obj_seek
0000000000011a50 g     F .text	00000000000000cc TEE_AEUpdate
0000000000001ffc g     F .text	0000000000000090 TEE_FreeTransientObject
000000000001a6c8 g     O .data	0000000000000004 g_public_key_size
000000000000c2bc g     F .text	000000000000007c mbedtls_mpi_core_cond_swap
0000000000003dd0 g     F .text	000000000000000c _utee_check_access_rights
000000000000c3c4 g     F .text	0000000000000090 mbedtls_mpi_core_read_be
0000000000004b5c g     F .text	0000000000000178 __GP11_TEE_InvokeTACommand
00000000000095d0 g     F .text	0000000000000078 mbedtls_mpi_cmp_int
00000000000089c4 g     F .text	0000000000000124 _base64_dec
00000000000103d8 g     F .text	000000000000002c __GP11_TEE_FreeOperation
0000000000003f98 g     F .text	000000000000000c _utee_storage_reset_enum
000000000000d1bc g     F .text	00000000000000bc mbedtls_ct_base64_dec_value
000000000000e300 g     F .text	00000000000002d4 bget_main_test
000000000001302c g     F .text	000000000000005c rand
00000000000033bc g     F .text	0000000000000024 __utee_check_attr_in_annotation
0000000000003f14 g     F .text	000000000000000c _utee_authenc_update_payload
0000000000010404 g     F .text	0000000000000054 TEE_GetOperationInfo
0000000000006808 g     F .text	000000000000006c TEE_BigIntMod
000000000000a4c0 g     F .text	000000000000009c mbedtls_mpi_mod_int
00000000000128f8 g     F .text	000000000000016c __GP11_TEE_AsymmetricSignDigest
000000000000924c g     F .text	000000000000005c mbedtls_mpi_read_binary_le
0000000000006654 g     F .text	00000000000001b4 TEE_BigIntDiv
0000000000003ea8 g     F .text	000000000000000c _utee_cryp_obj_alloc
0000000000026178 g       .bss	0000000000000000 __ftrace_buf_start
000000000000edd4 g     F .text	0000000000000038 strlcpy
000000000000d108 g     F .text	00000000000000b4 mbedtls_ct_base64_enc_char
0000000000008f5c g     F .text	00000000000000cc mbedtls_mpi_copy
0000000000013088 g     F .text	0000000000000468 TEE_IsAlgorithmSupported
000000000000c184 g     F .text	0000000000000028 mbedtls_mpi_core_clz
000000000000e5d4 g     F .text	0000000000000018 malloc_reset_stats
0000000000007e4c g     F .text	00000000000000e8 TEE_GetPropertyAsIdentity
0000000000001550 g     F .text	000000000000004c __vsprintf
0000000000007af8 g     F .text	00000000000000e8 TEE_GetPropertyAsU64
0000000000003e0c g     F .text	000000000000000c _utee_set_ta_time
0000000000003db8 g     F .text	000000000000000c _utee_invoke_ta_command
000000000000d7bc g     F .text	0000000000000018 mbedtls_put_unaligned_uint16
0000000000001b58 g     F .text	0000000000000044 TEE_RestrictObjectUsage1
000000000000e830 g     F .text	000000000000001c realloc
0000000000009028 g     F .text	000000000000008c mbedtls_mpi_swap
000000000000ee0c g     F .text	00000000000000c8 mempool_alloc_pool
0000000000006538 g     F .text	0000000000000114 TEE_BigIntMul
0000000000010694 g     F .text	000000000000003c TEE_ResetOperation
000000000000e8ac g     F .text	0000000000000008 raw_malloc_get_ctx_size
0000000000009324 g     F .text	0000000000000110 mbedtls_mpi_shift_l
0000000000009500 g     F .text	00000000000000d0 mbedtls_mpi_cmp_mpi
0000000000004d0c g     F .text	0000000000000004 TEE_MemFill
000000000000ebc4 g     F .text	0000000000000018 malloc_add_pool
00000000000114e0 g     F .text	00000000000000a0 TEE_MACUpdate
000000000000048c g     F .text	0000000000000010 trace_get_level
0000000000009648 g     F .text	00000000000000f8 mbedtls_mpi_add_abs
0000000000001b9c g     F .text	0000000000000090 TEE_RestrictObjectUsage
0000000000006ffc g     F .text	0000000000000010 TEE_BigIntFMMSizeInU32
0000000000007938 g     F .text	00000000000000d8 TEE_GetPropertyAsBool
000000000000e700 g     F .text	00000000000000f4 raw_realloc
0000000000006fdc g     F .text	0000000000000004 TEE_BigIntInitFMM
0000000000001f04 g     F .text	0000000000000028 TEE_CloseObject
0000000000003e60 g     F .text	000000000000000c _utee_cipher_init
00000000000038bc g     F .text	0000000000000288 __utee_entry
0000000000007a10 g     F .text	00000000000000e8 TEE_GetPropertyAsU32
00000000000134f0 g       .text	0000000000000000 __text_end
00000000000069f4 g     F .text	0000000000000108 TEE_BigIntRelativePrime
000000000000a40c g     F .text	00000000000000b4 mbedtls_mpi_mod_mpi
000000000000d3ec g     F .text	0000000000000080 mbedtls_mpi_core_lt_ct
0000000000003e84 g     F .text	000000000000000c _utee_cryp_obj_get_info
000000000000c740 g     F .text	0000000000000044 mbedtls_mpi_core_sub
000000000000e114 g     F .text	00000000000000d0 bpool
0000000000007f40 g     F .text	0000000000000048 TEE_AllocatePropertyEnumerator
0000000000003e18 g     F .text	000000000000000c _utee_cryp_state_alloc
00000000000043f8 g     F .text	0000000000000060 TEE_GetCancellationFlag
00000000000029d4 g     F .text	000000000000007c __GP11_TEE_CreatePersistentObject
000000000000d768 g     F .text	0000000000000054 mbedtls_get_unaligned_uint16
000000000000af64 g     F .text	00000000000001d8 mbedtls_mpi_gcd
0000000000004df4 g     F .text	0000000000000044 TEE_SetTAPersistentTime
0000000000009304 g     F .text	0000000000000010 mbedtls_mpi_write_binary_le
000000000000ed94 g     F .text	000000000000001c memset
000000000000e5ec g     F .text	0000000000000084 raw_memalign
0000000000004d7c g     F .text	0000000000000078 TEE_GetTAPersistentTime
000000000001081c g     F .text	000000000000003c __GP11_TEE_SetOperationKey
0000000000011e1c g     F .text	00000000000000d8 __GP11_TEE_AEEncryptFinal
000000000000d850 g     F .text	000000000000005c mbedtls_get_unaligned_uint64
000000000000079c g     F .text	0000000000000004 dhex_dump
000000000000c200 g     F .text	0000000000000034 mbedtls_mpi_core_bigendian_to_host
0000000000002890 g     F .text	0000000000000144 TEE_CreatePersistentObject
00000000000044b8 g     F .text	0000000000000060 TEE_MaskCancellation
0000000000011920 g     F .text	000000000000009c TEE_AEUpdateAAD
0000000000003084 g     F .text	000000000000005c TEE_TruncateObjectData
0000000000003e9c g     F .text	000000000000000c _utee_cryp_obj_get_attr
00000000000019e8 g     F .text	00000000000000b0 TEE_GetObjectInfo1
0000000000003e78 g     F .text	000000000000000c _utee_cipher_final
0000000000000470 g     F .text	000000000000001c trace_set_level
000000000000cf6c g     F .text	000000000000001c mbedtls_mpi_core_to_mont_rep
0000000000001dcc g     F .text	0000000000000138 TEE_GetObjectValueAttribute
00000000000106d0 g     F .text	000000000000014c TEE_SetOperationKey
000000000000d080 g     F .text	000000000000001c mbedtls_ct_mpi_uint_lt
0000000000001d30 g     F .text	000000000000009c __GP11_TEE_GetObjectBufferAttribute
0000000000003e30 g     F .text	000000000000000c _utee_cryp_state_free
000000000000edb0 g     F .text	0000000000000024 strcmp
0000000000003da0 g     F .text	000000000000000c _utee_open_ta_session
0000000000005ccc g     F .text	00000000000000b8 TEE_BigIntConvertToS32
0000000000006448 g     F .text	000000000000000c TEE_BigIntSub
0000000000003200 g     F .text	0000000000000008 __GP11_TEE_SeekObjectData
0000000000000420 g     F .text	0000000000000008 tahead_get_trace_level
0000000000003fa4 g     F .text	000000000000000c _utee_storage_start_enum
00000000000030e8 g     F .text	0000000000000118 TEE_SeekObjectData
00000000000082bc g     F .text	0000000000000094 tee_map_zi
00000000000030e0 g     F .text	0000000000000008 __GP11_TEE_TruncateObjectData
000000000000a8c8 g     F .text	0000000000000004 mbedtls_mpi_montred
000000000000e84c g     F .text	0000000000000020 memalign
000000000000d048 g     F .text	0000000000000010 mbedtls_ct_uint_mask
000000000001116c g     F .text	0000000000000218 TEE_CipherDoFinal
0000000000005a14 g     F .text	0000000000000008 __GP11_TEE_BigIntInit
0000000000005c18 g     F .text	00000000000000b4 TEE_BigIntConvertFromS32
0000000000009908 g     F .text	0000000000000078 mbedtls_mpi_add_int
0000000000003f20 g     F .text	000000000000000c _utee_authenc_enc_final
000000000000ebdc g     F .text	0000000000000018 malloc_buffer_is_within_alloced
0000000000003eb4 g     F .text	000000000000000c _utee_cryp_obj_close
0000000000013024 g     F .text	0000000000000008 __GP11_TEE_GenerateRandom
0000000000006fe8 g     F .text	0000000000000004 TEE_BigIntInitFMMContext
0000000000003de8 g     F .text	000000000000000c _utee_mask_cancellation
000000000001a6f0 g     O .bss	0000000000000008 __ta_no_share_malloc_ctx
0000000000003f74 g     F .text	000000000000000c _utee_storage_obj_rename
0000000000002d74 g     F .text	000000000000012c __GP11_TEE_GetNextPersistentObject
0000000000003004 g     F .text	0000000000000078 TEE_WriteObjectData
0000000000002be0 g     F .text	0000000000000028 TEE_ResetPersistentObjectEnumerator
0000000000004cd4 g     F .text	0000000000000008 __GP11_TEE_CheckMemoryAccessRights
000000000000664c g     F .text	0000000000000008 TEE_BigIntSquare
0000000000003fc8 g     F .text	000000000000000c _utee_storage_obj_write
000000000000c1ac g     F .text	0000000000000054 mbedtls_mpi_core_bitlen
00000000000000ec g     F .text	000000000000012c TA_CreateEntryPoint
000000000000040c g     F .text	0000000000000014 __ta_entry
0000000000026178 g     O .bss	0000000000000000 __ta_no_share_heap
0000000000003f08 g     F .text	000000000000000c _utee_authenc_update_aad
000000000000a894 g     F .text	0000000000000028 mbedtls_mpi_montg_init
00000000000008bc g     F .text	00000000000000d0 snprintk
0000000000006298 g     F .text	0000000000000078 TEE_BigIntGetBitCount
0000000000003ed8 g     F .text	000000000000000c _utee_cryp_obj_copy
00000000000119bc g     F .text	0000000000000094 __GP11_TEE_AEUpdateAAD
000000000000688c g     F .text	000000000000000c TEE_BigIntMulMod
000000000000b4dc g     F .text	0000000000000458 mbedtls_mpi_inv_mod
00000000000033e0 g     F .text	0000000000000004 __utee_check_gp11_attr_in_annotation
0000000000012d14 g     F .text	0000000000000178 TEE_DeriveKey
000000000001a6f8 g     O .bss	0000000000000040 ta_params
0000000000009e74 g     F .text	0000000000000520 mbedtls_mpi_div_mpi
0000000000003350 g     F .text	000000000000004c __utee_check_gp11_outstring_annotation
0000000000009230 g     F .text	000000000000001c mbedtls_mpi_size
000000000000da18 g     F .text	00000000000002e0 bget
0000000000002f68 g     F .text	000000000000009c __GP11_TEE_ReadObjectData
0000000000001fe0 g     F .text	000000000000001c TEE_AllocateTransientObject
0000000000011580 g     F .text	0000000000000008 __GP11_TEE_MACUpdate
000000000000702c g     F .text	0000000000000018 __GP11_TEE_BigIntFMMContextSizeInU32
0000000000007f8c g     F .text	0000000000000010 TEE_StartPropertyEnumerator
0000000000003df4 g     F .text	000000000000000c _utee_wait
0000000000009148 g     F .text	000000000000008c mbedtls_mpi_set_bit
000000000000c234 g     F .text	0000000000000064 mbedtls_mpi_core_uint_le_mpi
0000000000004f8c g     F .text	0000000000000060 TEE_Free
00000000000050f8 g     F .text	0000000000000008 TEE_CacheInvalidate
0000000000008884 g     F .text	0000000000000014 _assert_break
000000000000cc8c g     F .text	0000000000000028 mbedtls_mpi_core_exp_mod_working_limbs
0000000000006874 g     F .text	000000000000000c TEE_BigIntAddMod
000000000000d0cc g     F .text	000000000000003c mbedtls_ct_mpi_uint_cond_assign
0000000000006fe0 g     F .text	0000000000000008 __GP11_TEE_BigIntInitFMM
0000000000003e00 g     F .text	000000000000000c _utee_get_time
000000000000c694 g     F .text	000000000000003c mbedtls_mpi_core_add
00000000000080cc g     F .text	000000000000008c TEE_GetPropertyName
00000000000050e0 g     F .text	0000000000000008 __GP11_TEE_Realloc
000000000000f788 g     F .text	0000000000000c50 TEE_AllocateOperation
0000000000003ecc g     F .text	000000000000000c _utee_cryp_obj_populate
000000000000c338 g     F .text	000000000000008c mbedtls_mpi_core_read_le
0000000000010608 g     F .text	000000000000008c __GP11_TEE_GetOperationInfoMultiple
0000000000001814 g     F .text	0000000000000050 __utee_from_gp11_attr
0000000000013004 g     F .text	0000000000000020 TEE_GenerateRandom
0000000000010ca8 g     F .text	00000000000001a4 TEE_DigestExtract
0000000000004d00 g     F .text	0000000000000004 TEE_MemCompare
0000000000003e6c g     F .text	000000000000000c _utee_cipher_update
00000000000007a0 g     F .text	00000000000000c4 __vsnprintf
000000000001a6e0 g     O .bss	0000000000000010 __elf_phdr_info
0000000000002bb8 g     F .text	0000000000000028 TEE_FreePersistentObjectEnumerator
000000000000473c g     F .text	0000000000000154 TEE_OpenTASession
0000000000012e8c g     F .text	0000000000000178 __GP11_TEE_DeriveKey
000000000000cf88 g     F .text	000000000000006c mbedtls_mpi_core_from_mont_rep
00000000000120c8 g     F .text	00000000000000bc __GP11_TEE_AEDecryptFinal
00000000000015e4 g     F .text	0000000000000028 trace_ext_puts
000000000000789c g     F .text	000000000000009c __GP11_TEE_GetPropertyAsString
000000000000ea24 g     F .text	0000000000000150 raw_malloc_buffer_is_within_alloced
000000000000160c g     F .text	0000000000000008 trace_ext_get_thread_id
000000000000e9a4 g     F .text	0000000000000080 raw_malloc_buffer_overlaps_heap
0000000000002a98 g     F .text	000000000000002c TEE_CloseAndDeletePersistentObject
0000000000003ee4 g     F .text	000000000000000c _utee_cryp_derive_key
0000000000008c84 g     F .text	000000000000006c mbedtls_mpi_free
00000000000114d8 g     F .text	0000000000000008 __GP11_TEE_MACInit
0000000000012bbc g     F .text	0000000000000158 __GP11_TEE_AsymmetricVerifyDigest
0000000000003ec0 g     F .text	000000000000000c _utee_cryp_obj_reset
00000000000050e8 g     F .text	0000000000000008 TEE_CacheClean
0000000000003d94 g     F .text	000000000000000c _utee_get_property_name_to_index
000000000000c984 g     F .text	00000000000000f8 mbedtls_mpi_core_montmul
000000000000e690 g     F .text	0000000000000070 raw_calloc
00000000000088b0 g     F .text	0000000000000114 _base64_enc
000000000000d334 g     F .text	00000000000000b8 mbedtls_mpi_safe_cond_swap
0000000000003efc g     F .text	000000000000000c _utee_authenc_init
0000000000002470 g     F .text	00000000000000f8 TEE_CopyObjectAttributes1
0000000000002b20 g     F .text	0000000000000008 __GP11_TEE_RenamePersistentObject
00000000000015c8 g     F .text	000000000000001c strlen
0000000000006cd4 g     F .text	0000000000000270 TEE_BigIntComputeExtendedGcd
0000000000003f80 g     F .text	000000000000000c _utee_storage_alloc_enum
0000000000006afc g     F .text	00000000000001d8 TEE_BigIntExpMod
0000000000004d18 g     F .text	0000000000000028 TEE_GetSystemTime
0000000000003f44 g     F .text	000000000000000c _utee_asymm_verify
0000000000018b60 g     O .ta_head	0000000000000020 ta_head
000000000000dd80 g     F .text	00000000000002c4 brel
0000000000003ca8 g     F .text	00000000000000b0 __ta_invoke_cmd
0000000000007be0 g     F .text	00000000000000e8 __GP11_TEE_GetPropertyAsBinaryBlock
0000000000009740 g     F .text	0000000000000114 mbedtls_mpi_sub_abs
000000000000b13c g     F .text	0000000000000068 mbedtls_mpi_fill_random
0000000000001f2c g     F .text	00000000000000b4 __GP11_TEE_AllocateTransientObject
0000000000003c0c g     F .text	000000000000009c __ta_open_sess
0000000000004cdc g     F .text	000000000000000c TEE_SetInstanceData
0000000000012310 g     F .text	0000000000000174 __GP11_TEE_AsymmetricEncrypt
0000000000003dc4 g     F .text	000000000000000c _utee_get_cancellation_flag
000000000000c298 g     F .text	0000000000000024 mbedtls_mpi_core_cond_assign
000000000000a55c g     F .text	0000000000000274 mbedtls_mpi_write_string
000000000000e86c g     F .text	0000000000000018 aligned_alloc
000000000000c950 g     F .text	0000000000000034 mbedtls_mpi_core_montmul_init
0000000000002c58 g     F .text	000000000000011c TEE_GetNextPersistentObject
0000000000006ff4 g     F .text	0000000000000008 TEE_BigIntInitFMMContext1
0000000000011840 g     F .text	000000000000000c __GP11_TEE_MACCompareFinal
000000000000307c g     F .text	0000000000000008 __GP11_TEE_WriteObjectData
000000000000ca7c g     F .text	0000000000000068 mbedtls_mpi_core_get_mont_r2_unsafe
00000000000043d0 g     F .text	0000000000000028 TEE_CloseTASession
0000000000012a64 g     F .text	0000000000000158 TEE_AsymmetricVerifyDigest
0000000000003f5c g     F .text	000000000000000c _utee_storage_obj_create
000000000000700c g     F .text	0000000000000018 __GP11_TEE_BigIntFMMSizeInU32
000000000000e884 g     F .text	0000000000000014 free
000000000000e1e4 g     F .text	0000000000000094 bstats
0000000000011588 g     F .text	0000000000000110 TEE_MACComputeFinal
000000000001df68 g     O .bss	0000000000000008 mbedtls_mpi_mempool
0000000000003e54 g     F .text	000000000000000c _utee_hash_final



Disassembly of section .text:

0000000000000000 <memcpy>:
memcpy():
/home/qc2335/optee/optee_os/memcpy.c:106
       0:	f1007c5f 	cmp	x2, #0x1f
       4:	54000629 	b.ls	c8 <memcpy+0xc8>  // b.plast
/home/qc2335/optee/optee_os/memcpy.c:106 (discriminator 1)
       8:	aa010005 	orr	x5, x0, x1
       c:	f24008a5 	ands	x5, x5, #0x7
      10:	54000641 	b.ne	d8 <memcpy+0xd8>  // b.any
      14:	d1008048 	sub	x8, x2, #0x20
/home/qc2335/optee/optee_os/memcpy.c:108
      18:	aa0103e3 	mov	x3, x1
      1c:	927be908 	and	x8, x8, #0xffffffffffffffe0
/home/qc2335/optee/optee_os/memcpy.c:107
      20:	aa0003e4 	mov	x4, x0
      24:	91008108 	add	x8, x8, #0x20
      28:	8b080007 	add	x7, x0, x8
      2c:	d503201f 	nop
/home/qc2335/optee/optee_os/memcpy.c:112
      30:	f9400066 	ldr	x6, [x3]
      34:	f9000086 	str	x6, [x4]
/home/qc2335/optee/optee_os/memcpy.c:113
      38:	91008063 	add	x3, x3, #0x20
      3c:	91008084 	add	x4, x4, #0x20
      40:	f85e8066 	ldur	x6, [x3, #-24]
      44:	f81e8086 	stur	x6, [x4, #-24]
/home/qc2335/optee/optee_os/memcpy.c:114
      48:	f85f0066 	ldur	x6, [x3, #-16]
      4c:	f81f0086 	stur	x6, [x4, #-16]
/home/qc2335/optee/optee_os/memcpy.c:115
      50:	f85f8066 	ldur	x6, [x3, #-8]
      54:	f81f8086 	stur	x6, [x4, #-8]
/home/qc2335/optee/optee_os/memcpy.c:111
      58:	eb0400ff 	cmp	x7, x4
      5c:	54fffea1 	b.ne	30 <memcpy+0x30>  // b.any
/home/qc2335/optee/optee_os/memcpy.c:115
      60:	8b080021 	add	x1, x1, x8
/home/qc2335/optee/optee_os/memcpy.c:116
      64:	92401043 	and	x3, x2, #0x1f
/home/qc2335/optee/optee_os/memcpy.c:120
      68:	f27d045f 	tst	x2, #0x18
      6c:	540003c0 	b.eq	e4 <memcpy+0xe4>  // b.none
/home/qc2335/optee/optee_os/memcpy.c:121
      70:	f8656826 	ldr	x6, [x1, x5]
      74:	f8256886 	str	x6, [x4, x5]
/home/qc2335/optee/optee_os/memcpy.c:120
      78:	910020a5 	add	x5, x5, #0x8
      7c:	cb050066 	sub	x6, x3, x5
      80:	f1001cdf 	cmp	x6, #0x7
      84:	54ffff68 	b.hi	70 <memcpy+0x70>  // b.pmore
      88:	d1002063 	sub	x3, x3, #0x8
/home/qc2335/optee/optee_os/memcpy.c:122
      8c:	92400842 	and	x2, x2, #0x7
      90:	927df063 	and	x3, x3, #0xfffffffffffffff8
/home/qc2335/optee/optee_os/memcpy.c:130
      94:	d1000446 	sub	x6, x2, #0x1
      98:	91002063 	add	x3, x3, #0x8
/home/qc2335/optee/optee_os/memcpy.c:121
      9c:	8b030084 	add	x4, x4, x3
      a0:	8b030021 	add	x1, x1, x3
/home/qc2335/optee/optee_os/memcpy.c:130
      a4:	b4000102 	cbz	x2, c4 <memcpy+0xc4>
/home/qc2335/optee/optee_os/memcpy.c:99
      a8:	d2800002 	mov	x2, #0x0                   	// #0
      ac:	d503201f 	nop
/home/qc2335/optee/optee_os/memcpy.c:131
      b0:	38626825 	ldrb	w5, [x1, x2]
/home/qc2335/optee/optee_os/memcpy.c:130
      b4:	eb0200df 	cmp	x6, x2
/home/qc2335/optee/optee_os/memcpy.c:131
      b8:	38226885 	strb	w5, [x4, x2]
/home/qc2335/optee/optee_os/memcpy.c:130
      bc:	91000442 	add	x2, x2, #0x1
      c0:	54ffff81 	b.ne	b0 <memcpy+0xb0>  // b.any
/home/qc2335/optee/optee_os/memcpy.c:135
      c4:	d65f03c0 	ret
/home/qc2335/optee/optee_os/memcpy.c:99
      c8:	aa0003e4 	mov	x4, x0
/home/qc2335/optee/optee_os/memcpy.c:130
      cc:	d1000446 	sub	x6, x2, #0x1
      d0:	b5fffec2 	cbnz	x2, a8 <memcpy+0xa8>
/home/qc2335/optee/optee_os/memcpy.c:135
      d4:	d65f03c0 	ret
/home/qc2335/optee/optee_os/memcpy.c:130
      d8:	d1000446 	sub	x6, x2, #0x1
/home/qc2335/optee/optee_os/memcpy.c:99
      dc:	aa0003e4 	mov	x4, x0
      e0:	17fffff2 	b	a8 <memcpy+0xa8>
/home/qc2335/optee/optee_os/memcpy.c:120
      e4:	aa0303e2 	mov	x2, x3
      e8:	17fffff9 	b	cc <memcpy+0xcc>

00000000000000ec <TA_CreateEntryPoint>:
TA_CreateEntryPoint():
/home/qc2335/optee/optee_examples/my_test/ta/my_test_ta.c:48
      ec:	a9bc7bfd 	stp	x29, x30, [sp, #-64]!
      f0:	910003fd 	mov	x29, sp
      f4:	f90013f5 	str	x21, [sp, #32]
      f8:	d00000d5 	adrp	x21, 1a000 <_DYNAMIC>
/home/qc2335/optee/optee_examples/my_test/ta/my_test_ta.c:55
      fc:	9100c3e2 	add	x2, sp, #0x30
/home/qc2335/optee/optee_examples/my_test/ta/my_test_ta.c:48
     100:	a90153f3 	stp	x19, x20, [sp, #16]
     104:	aa1503f4 	mov	x20, x21
     108:	f9409aa0 	ldr	x0, [x21, #304]
     10c:	f00000b5 	adrp	x21, 17000 <__text_end+0x3b10>
/home/qc2335/optee/optee_examples/my_test/ta/my_test_ta.c:50
     110:	f9001bff 	str	xzr, [sp, #48]
/home/qc2335/optee/optee_examples/my_test/ta/my_test_ta.c:48
     114:	f9400001 	ldr	x1, [x0]
     118:	f9001fe1 	str	x1, [sp, #56]
     11c:	d2800001 	mov	x1, #0x0                   	// #0
/home/qc2335/optee/optee_examples/my_test/ta/my_test_ta.c:55
     120:	52800600 	mov	w0, #0x30                  	// #48
     124:	52810001 	mov	w1, #0x800                 	// #2048
     128:	72b42000 	movk	w0, #0xa100, lsl #16
     12c:	94000780 	bl	1f2c <__GP11_TEE_AllocateTransientObject>
/home/qc2335/optee/optee_examples/my_test/ta/my_test_ta.c:56
     130:	34000200 	cbz	w0, 170 <TA_CreateEntryPoint+0x84>
     134:	2a0003f3 	mov	w19, w0
/home/qc2335/optee/optee_examples/my_test/ta/my_test_ta.c:57
     138:	f00000a4 	adrp	x4, 17000 <__text_end+0x3b10>
     13c:	912d66a0 	add	x0, x21, #0xb59
     140:	91299084 	add	x4, x4, #0xa64
     144:	52800023 	mov	w3, #0x1                   	// #1
     148:	52800022 	mov	w2, #0x1                   	// #1
     14c:	52800721 	mov	w1, #0x39                  	// #57
     150:	9400015a 	bl	6b8 <trace_printf>
/home/qc2335/optee/optee_examples/my_test/ta/my_test_ta.c:79
     154:	f9409a94 	ldr	x20, [x20, #304]
     158:	f9401fe0 	ldr	x0, [sp, #56]
     15c:	f9400281 	ldr	x1, [x20]
     160:	eb010000 	subs	x0, x0, x1
     164:	d2800001 	mov	x1, #0x0                   	// #0
     168:	540004e0 	b.eq	204 <TA_CreateEntryPoint+0x118>  // b.none
     16c:	940000b5 	bl	440 <__stack_chk_fail>
/home/qc2335/optee/optee_examples/my_test/ta/my_test_ta.c:61
     170:	f9401be0 	ldr	x0, [sp, #48]
     174:	52800003 	mov	w3, #0x0                   	// #0
     178:	d2800002 	mov	x2, #0x0                   	// #0
     17c:	52810001 	mov	w1, #0x800                 	// #2048
     180:	94000954 	bl	26d0 <__GP11_TEE_GenerateKey>
     184:	2a0003f3 	mov	w19, w0
/home/qc2335/optee/optee_examples/my_test/ta/my_test_ta.c:62
     188:	34000160 	cbz	w0, 1b4 <TA_CreateEntryPoint+0xc8>
/home/qc2335/optee/optee_examples/my_test/ta/my_test_ta.c:63
     18c:	f00000a4 	adrp	x4, 17000 <__text_end+0x3b10>
     190:	912a2884 	add	x4, x4, #0xa8a
     194:	52800023 	mov	w3, #0x1                   	// #1
     198:	52800022 	mov	w2, #0x1                   	// #1
     19c:	528007e1 	mov	w1, #0x3f                  	// #63
/home/qc2335/optee/optee_examples/my_test/ta/my_test_ta.c:74
     1a0:	912d66a0 	add	x0, x21, #0xb59
     1a4:	94000145 	bl	6b8 <trace_printf>
/home/qc2335/optee/optee_examples/my_test/ta/my_test_ta.c:77
     1a8:	f9401be0 	ldr	x0, [sp, #48]
     1ac:	94000794 	bl	1ffc <TEE_FreeTransientObject>
/home/qc2335/optee/optee_examples/my_test/ta/my_test_ta.c:78
     1b0:	17ffffe9 	b	154 <TA_CreateEntryPoint+0x68>
/home/qc2335/optee/optee_examples/my_test/ta/my_test_ta.c:68
     1b4:	f940da83 	ldr	x3, [x20, #432]
     1b8:	52804601 	mov	w1, #0x230                 	// #560
     1bc:	f940a282 	ldr	x2, [x20, #320]
     1c0:	72ba0001 	movk	w1, #0xd000, lsl #16
     1c4:	f9401be0 	ldr	x0, [sp, #48]
     1c8:	940006da 	bl	1d30 <__GP11_TEE_GetObjectBufferAttribute>
     1cc:	2a0003f3 	mov	w19, w0
/home/qc2335/optee/optee_examples/my_test/ta/my_test_ta.c:69
     1d0:	340000e0 	cbz	w0, 1ec <TA_CreateEntryPoint+0x100>
/home/qc2335/optee/optee_examples/my_test/ta/my_test_ta.c:70
     1d4:	f00000a4 	adrp	x4, 17000 <__text_end+0x3b10>
     1d8:	52800023 	mov	w3, #0x1                   	// #1
     1dc:	912aa484 	add	x4, x4, #0xaa9
     1e0:	52800022 	mov	w2, #0x1                   	// #1
     1e4:	528008c1 	mov	w1, #0x46                  	// #70
     1e8:	17ffffee 	b	1a0 <TA_CreateEntryPoint+0xb4>
/home/qc2335/optee/optee_examples/my_test/ta/my_test_ta.c:74
     1ec:	f00000a4 	adrp	x4, 17000 <__text_end+0x3b10>
     1f0:	52800023 	mov	w3, #0x1                   	// #1
     1f4:	912b1884 	add	x4, x4, #0xac6
     1f8:	52800042 	mov	w2, #0x2                   	// #2
     1fc:	52800941 	mov	w1, #0x4a                  	// #74
     200:	17ffffe8 	b	1a0 <TA_CreateEntryPoint+0xb4>
/home/qc2335/optee/optee_examples/my_test/ta/my_test_ta.c:79
     204:	2a1303e0 	mov	w0, w19
     208:	a94153f3 	ldp	x19, x20, [sp, #16]
     20c:	f94013f5 	ldr	x21, [sp, #32]
     210:	a8c47bfd 	ldp	x29, x30, [sp], #64
     214:	d65f03c0 	ret

0000000000000218 <TA_DestroyEntryPoint>:
TA_DestroyEntryPoint():
/home/qc2335/optee/optee_examples/my_test/ta/my_test_ta.c:86
     218:	f00000a0 	adrp	x0, 17000 <__text_end+0x3b10>
     21c:	912d6400 	add	x0, x0, #0xb59
     220:	91005000 	add	x0, x0, #0x14
     224:	f00000a4 	adrp	x4, 17000 <__text_end+0x3b10>
     228:	52800023 	mov	w3, #0x1                   	// #1
     22c:	912b9c84 	add	x4, x4, #0xae7
     230:	52800062 	mov	w2, #0x3                   	// #3
     234:	52800ac1 	mov	w1, #0x56                  	// #86
     238:	14000120 	b	6b8 <trace_printf>

000000000000023c <__GP11_TA_OpenSessionEntryPoint>:
__GP11_TA_OpenSessionEntryPoint():
/home/qc2335/optee/optee_examples/my_test/ta/my_test_ta.c:98
     23c:	a9be7bfd 	stp	x29, x30, [sp, #-32]!
/home/qc2335/optee/optee_examples/my_test/ta/my_test_ta.c:104
     240:	f00000a4 	adrp	x4, 17000 <__text_end+0x3b10>
     244:	52800023 	mov	w3, #0x1                   	// #1
/home/qc2335/optee/optee_examples/my_test/ta/my_test_ta.c:98
     248:	910003fd 	mov	x29, sp
     24c:	a90153f3 	stp	x19, x20, [sp, #16]
/home/qc2335/optee/optee_examples/my_test/ta/my_test_ta.c:104
     250:	f00000b3 	adrp	x19, 17000 <__text_end+0x3b10>
     254:	912d6673 	add	x19, x19, #0xb59
     258:	9100a673 	add	x19, x19, #0x29
/home/qc2335/optee/optee_examples/my_test/ta/my_test_ta.c:98
     25c:	2a0003f4 	mov	w20, w0
/home/qc2335/optee/optee_examples/my_test/ta/my_test_ta.c:104
     260:	912b9c84 	add	x4, x4, #0xae7
     264:	aa1303e0 	mov	x0, x19
     268:	52800062 	mov	w2, #0x3                   	// #3
     26c:	52800d01 	mov	w1, #0x68                  	// #104
     270:	94000112 	bl	6b8 <trace_printf>
/home/qc2335/optee/optee_examples/my_test/ta/my_test_ta.c:106
     274:	35000194 	cbnz	w20, 2a4 <__GP11_TA_OpenSessionEntryPoint+0x68>
/home/qc2335/optee/optee_examples/my_test/ta/my_test_ta.c:117
     278:	f00000a4 	adrp	x4, 17000 <__text_end+0x3b10>
     27c:	aa1303e0 	mov	x0, x19
     280:	912bdc84 	add	x4, x4, #0xaf7
     284:	52800023 	mov	w3, #0x1                   	// #1
     288:	52800042 	mov	w2, #0x2                   	// #2
     28c:	52800ea1 	mov	w1, #0x75                  	// #117
     290:	9400010a 	bl	6b8 <trace_printf>
/home/qc2335/optee/optee_examples/my_test/ta/my_test_ta.c:121
     294:	2a1403e0 	mov	w0, w20
     298:	a94153f3 	ldp	x19, x20, [sp, #16]
     29c:	a8c27bfd 	ldp	x29, x30, [sp], #32
     2a0:	d65f03c0 	ret
/home/qc2335/optee/optee_examples/my_test/ta/my_test_ta.c:107
     2a4:	129fff34 	mov	w20, #0xffff0006            	// #-65530
     2a8:	17fffffb 	b	294 <__GP11_TA_OpenSessionEntryPoint+0x58>

00000000000002ac <TA_CloseSessionEntryPoint>:
TA_CloseSessionEntryPoint():
/home/qc2335/optee/optee_examples/my_test/ta/my_test_ta.c:130
     2ac:	f00000a0 	adrp	x0, 17000 <__text_end+0x3b10>
     2b0:	912d6400 	add	x0, x0, #0xb59
     2b4:	91012400 	add	x0, x0, #0x49
     2b8:	f00000a4 	adrp	x4, 17000 <__text_end+0x3b10>
     2bc:	52800023 	mov	w3, #0x1                   	// #1
     2c0:	912c1884 	add	x4, x4, #0xb06
     2c4:	52800042 	mov	w2, #0x2                   	// #2
     2c8:	52801041 	mov	w1, #0x82                  	// #130
     2cc:	140000fb 	b	6b8 <trace_printf>

00000000000002d0 <__GP11_TA_InvokeCommandEntryPoint>:
__GP11_TA_InvokeCommandEntryPoint():
/home/qc2335/optee/optee_examples/my_test/ta/my_test_ta.c:180
     2d0:	a9bd7bfd 	stp	x29, x30, [sp, #-48]!
     2d4:	910003fd 	mov	x29, sp
     2d8:	a90153f3 	stp	x19, x20, [sp, #16]
     2dc:	2a0103f3 	mov	w19, w1
     2e0:	aa0303f4 	mov	x20, x3
     2e4:	a9025bf5 	stp	x21, x22, [sp, #32]
     2e8:	2a0203f6 	mov	w22, w2
/home/qc2335/optee/optee_examples/my_test/ta/my_test_ta.c:183
     2ec:	34000121 	cbz	w1, 310 <__GP11_TA_InvokeCommandEntryPoint+0x40>
     2f0:	7100043f 	cmp	w1, #0x1
     2f4:	540004c0 	b.eq	38c <__GP11_TA_InvokeCommandEntryPoint+0xbc>  // b.none
inc_value():
/home/qc2335/optee/optee_examples/my_test/ta/my_test_ta.c:144
     2f8:	129fff33 	mov	w19, #0xffff0006            	// #-65530
__GP11_TA_InvokeCommandEntryPoint():
/home/qc2335/optee/optee_examples/my_test/ta/my_test_ta.c:191
     2fc:	2a1303e0 	mov	w0, w19
     300:	a94153f3 	ldp	x19, x20, [sp, #16]
     304:	a9425bf5 	ldp	x21, x22, [sp, #32]
     308:	a8c37bfd 	ldp	x29, x30, [sp], #48
     30c:	d65f03c0 	ret
inc_value():
/home/qc2335/optee/optee_examples/my_test/ta/my_test_ta.c:141
     310:	f00000b5 	adrp	x21, 17000 <__text_end+0x3b10>
     314:	912d66b5 	add	x21, x21, #0xb59
     318:	91018eb5 	add	x21, x21, #0x63
     31c:	f00000a4 	adrp	x4, 17000 <__text_end+0x3b10>
     320:	aa1503e0 	mov	x0, x21
     324:	912b9c84 	add	x4, x4, #0xae7
     328:	52800023 	mov	w3, #0x1                   	// #1
     32c:	52800062 	mov	w2, #0x3                   	// #3
     330:	528011a1 	mov	w1, #0x8d                  	// #141
     334:	940000e1 	bl	6b8 <trace_printf>
/home/qc2335/optee/optee_examples/my_test/ta/my_test_ta.c:143
     338:	71000edf 	cmp	w22, #0x3
     33c:	54fffde1 	b.ne	2f8 <__GP11_TA_InvokeCommandEntryPoint+0x28>  // b.any
/home/qc2335/optee/optee_examples/my_test/ta/my_test_ta.c:146
     340:	b9400285 	ldr	w5, [x20]
     344:	aa1503e0 	mov	x0, x21
     348:	52800023 	mov	w3, #0x1                   	// #1
     34c:	52800042 	mov	w2, #0x2                   	// #2
     350:	52801241 	mov	w1, #0x92                  	// #146
     354:	f00000a4 	adrp	x4, 17000 <__text_end+0x3b10>
     358:	912c5c84 	add	x4, x4, #0xb17
     35c:	940000d7 	bl	6b8 <trace_printf>
/home/qc2335/optee/optee_examples/my_test/ta/my_test_ta.c:147
     360:	b9400285 	ldr	w5, [x20]
/home/qc2335/optee/optee_examples/my_test/ta/my_test_ta.c:148
     364:	aa1503e0 	mov	x0, x21
     368:	f00000a4 	adrp	x4, 17000 <__text_end+0x3b10>
     36c:	52800023 	mov	w3, #0x1                   	// #1
/home/qc2335/optee/optee_examples/my_test/ta/my_test_ta.c:147
     370:	110028a5 	add	w5, w5, #0xa
     374:	b9000285 	str	w5, [x20]
/home/qc2335/optee/optee_examples/my_test/ta/my_test_ta.c:148
     378:	912cb484 	add	x4, x4, #0xb2d
     37c:	52800042 	mov	w2, #0x2                   	// #2
     380:	52801281 	mov	w1, #0x94                  	// #148
     384:	940000cd 	bl	6b8 <trace_printf>
/home/qc2335/optee/optee_examples/my_test/ta/my_test_ta.c:150
     388:	17ffffdd 	b	2fc <__GP11_TA_InvokeCommandEntryPoint+0x2c>
dec_value():
/home/qc2335/optee/optee_examples/my_test/ta/my_test_ta.c:161
     38c:	f00000b5 	adrp	x21, 17000 <__text_end+0x3b10>
     390:	912d66b5 	add	x21, x21, #0xb59
     394:	9101b6b5 	add	x21, x21, #0x6d
     398:	2a0103e3 	mov	w3, w1
     39c:	aa1503e0 	mov	x0, x21
     3a0:	f00000a4 	adrp	x4, 17000 <__text_end+0x3b10>
     3a4:	52800062 	mov	w2, #0x3                   	// #3
     3a8:	912b9c84 	add	x4, x4, #0xae7
     3ac:	52801421 	mov	w1, #0xa1                  	// #161
     3b0:	940000c2 	bl	6b8 <trace_printf>
/home/qc2335/optee/optee_examples/my_test/ta/my_test_ta.c:163
     3b4:	71000edf 	cmp	w22, #0x3
     3b8:	54fffa01 	b.ne	2f8 <__GP11_TA_InvokeCommandEntryPoint+0x28>  // b.any
/home/qc2335/optee/optee_examples/my_test/ta/my_test_ta.c:166
     3bc:	b9400285 	ldr	w5, [x20]
     3c0:	2a1303e3 	mov	w3, w19
     3c4:	aa1503e0 	mov	x0, x21
     3c8:	52800042 	mov	w2, #0x2                   	// #2
     3cc:	528014c1 	mov	w1, #0xa6                  	// #166
     3d0:	f00000a4 	adrp	x4, 17000 <__text_end+0x3b10>
     3d4:	912c5c84 	add	x4, x4, #0xb17
     3d8:	940000b8 	bl	6b8 <trace_printf>
/home/qc2335/optee/optee_examples/my_test/ta/my_test_ta.c:167
     3dc:	b9400285 	ldr	w5, [x20]
/home/qc2335/optee/optee_examples/my_test/ta/my_test_ta.c:168
     3e0:	2a1303e3 	mov	w3, w19
     3e4:	aa1503e0 	mov	x0, x21
     3e8:	f00000a4 	adrp	x4, 17000 <__text_end+0x3b10>
/home/qc2335/optee/optee_examples/my_test/ta/my_test_ta.c:167
     3ec:	510004a5 	sub	w5, w5, #0x1
     3f0:	b9000285 	str	w5, [x20]
/home/qc2335/optee/optee_examples/my_test/ta/my_test_ta.c:168
     3f4:	912d0c84 	add	x4, x4, #0xb43
     3f8:	52800042 	mov	w2, #0x2                   	// #2
     3fc:	52801501 	mov	w1, #0xa8                  	// #168
/home/qc2335/optee/optee_examples/my_test/ta/my_test_ta.c:170
     400:	52800013 	mov	w19, #0x0                   	// #0
/home/qc2335/optee/optee_examples/my_test/ta/my_test_ta.c:168
     404:	940000ad 	bl	6b8 <trace_printf>
/home/qc2335/optee/optee_examples/my_test/ta/my_test_ta.c:170
     408:	17ffffbd 	b	2fc <__GP11_TA_InvokeCommandEntryPoint+0x2c>

000000000000040c <__ta_entry>:
__ta_entry():
/home/qc2335/optee/optee_os/out/arm/export-ta_arm64/src/user_ta_header.c:51
     40c:	a9bf7bfd 	stp	x29, x30, [sp, #-16]!
     410:	910003fd 	mov	x29, sp
/home/qc2335/optee/optee_os/out/arm/export-ta_arm64/src/user_ta_header.c:70
     414:	94000d2a 	bl	38bc <__utee_entry>
/home/qc2335/optee/optee_os/out/arm/export-ta_arm64/src/user_ta_header.c:81
     418:	2a0003e0 	mov	w0, w0
     41c:	94000e52 	bl	3d64 <_utee_return>

0000000000000420 <tahead_get_trace_level>:
tahead_get_trace_level():
/home/qc2335/optee/optee_os/out/arm/export-ta_arm64/src/user_ta_header.c:193
     420:	52800080 	mov	w0, #0x4                   	// #4
     424:	d65f03c0 	ret

0000000000000428 <TA_OpenSessionEntryPoint>:
TA_OpenSessionEntryPoint():
/home/qc2335/optee/optee_os/out/arm/export-ta_arm64/src/user_ta_header.c:203
     428:	d00000c3 	adrp	x3, 1a000 <_DYNAMIC>
     42c:	f940d063 	ldr	x3, [x3, #416]
     430:	14000df7 	b	3c0c <__ta_open_sess>

0000000000000434 <TA_InvokeCommandEntryPoint>:
TA_InvokeCommandEntryPoint():
/home/qc2335/optee/optee_os/out/arm/export-ta_arm64/src/user_ta_header.c:211
     434:	d00000c4 	adrp	x4, 1a000 <_DYNAMIC>
     438:	f940c484 	ldr	x4, [x4, #392]
     43c:	14000e1b 	b	3ca8 <__ta_invoke_cmd>

0000000000000440 <__stack_chk_fail>:
__stack_chk_fail():
/home/qc2335/optee/optee_os/stack_check.c:24
     440:	a9bf7bfd 	stp	x29, x30, [sp, #-16]!
/home/qc2335/optee/optee_os/stack_check.c:25
     444:	f00000a4 	adrp	x4, 17000 <__text_end+0x3b10>
     448:	52800023 	mov	w3, #0x1                   	// #1
/home/qc2335/optee/optee_os/stack_check.c:24
     44c:	910003fd 	mov	x29, sp
/home/qc2335/optee/optee_os/stack_check.c:25
     450:	91348c84 	add	x4, x4, #0xd23
     454:	52800022 	mov	w2, #0x1                   	// #1
     458:	52800001 	mov	w1, #0x0                   	// #0
     45c:	d2800000 	mov	x0, #0x0                   	// #0
     460:	94000096 	bl	6b8 <trace_printf>
/home/qc2335/optee/optee_os/stack_check.c:27 (discriminator 1)
     464:	1299fe00 	mov	w0, #0xffff300f            	// #-53233
     468:	94000e3c 	bl	3d58 <_utee_panic>
/home/qc2335/optee/optee_os/stack_check.c:26 (discriminator 1)
     46c:	17fffffe 	b	464 <__stack_chk_fail+0x24>

0000000000000470 <trace_set_level>:
trace_set_level():
     470:	7100141f 	cmp	w0, #0x5
     474:	52800081 	mov	w1, #0x4                   	// #4
     478:	1a813000 	csel	w0, w0, w1, cc  // cc = lo, ul, last
     47c:	d00000c1 	adrp	x1, 1a000 <_DYNAMIC>
     480:	f940ac21 	ldr	x1, [x1, #344]
     484:	b9000020 	str	w0, [x1]
     488:	d65f03c0 	ret

000000000000048c <trace_get_level>:
trace_get_level():
     48c:	d00000c0 	adrp	x0, 1a000 <_DYNAMIC>
     490:	f940ac00 	ldr	x0, [x0, #344]
     494:	b9400000 	ldr	w0, [x0]
     498:	d65f03c0 	ret

000000000000049c <trace_vprintf>:
trace_vprintf():
     49c:	a9a77bfd 	stp	x29, x30, [sp, #-400]!
     4a0:	910003fd 	mov	x29, sp
     4a4:	a9046bf9 	stp	x25, x26, [sp, #64]
     4a8:	2a0103f9 	mov	w25, w1
     4ac:	d00000c1 	adrp	x1, 1a000 <_DYNAMIC>
     4b0:	a9025bf5 	stp	x21, x22, [sp, #32]
     4b4:	aa0003f6 	mov	x22, x0
     4b8:	aa0103f5 	mov	x21, x1
     4bc:	f9409820 	ldr	x0, [x1, #304]
     4c0:	a90153f3 	stp	x19, x20, [sp, #16]
     4c4:	2a0203f3 	mov	w19, w2
     4c8:	a90363f7 	stp	x23, x24, [sp, #48]
     4cc:	aa0403f7 	mov	x23, x4
     4d0:	aa0503f8 	mov	x24, x5
     4d4:	a90573fb 	stp	x27, x28, [sp, #80]
     4d8:	72001c7b 	ands	w27, w3, #0xff
     4dc:	f9400002 	ldr	x2, [x0]
     4e0:	f900c7e2 	str	x2, [sp, #392]
     4e4:	d2800002 	mov	x2, #0x0                   	// #0
     4e8:	54000b20 	b.eq	64c <trace_vprintf+0x1b0>  // b.none
     4ec:	f940ac20 	ldr	x0, [x1, #344]
     4f0:	b9400000 	ldr	w0, [x0]
     4f4:	6b13001f 	cmp	w0, w19
     4f8:	540009cb 	b.lt	630 <trace_vprintf+0x194>  // b.tstop
     4fc:	7100127f 	cmp	w19, #0x4
     500:	f00000a0 	adrp	x0, 17000 <__text_end+0x3b10>
     504:	1a9f9261 	csel	w1, w19, wzr, ls  // ls = plast
     508:	91355400 	add	x0, x0, #0xd55
     50c:	3861c803 	ldrb	w3, [x0, w1, sxtw]
     510:	910223f4 	add	x20, sp, #0x88
     514:	f00000a2 	adrp	x2, 17000 <__text_end+0x3b10>
     518:	aa1403e0 	mov	x0, x20
     51c:	9134ec42 	add	x2, x2, #0xd3b
     520:	d2802001 	mov	x1, #0x100                 	// #256
     524:	940000e6 	bl	8bc <snprintk>
     528:	37f80840 	tbnz	w0, #31, 630 <trace_vprintf+0x194>
     52c:	f940b6a3 	ldr	x3, [x21, #360]
     530:	d280201c 	mov	x28, #0x100                 	// #256
     534:	93407c1a 	sxtw	x26, w0
     538:	cb20c381 	sub	x1, x28, w0, sxtw
     53c:	f00000a2 	adrp	x2, 17000 <__text_end+0x3b10>
     540:	8b20c280 	add	x0, x20, w0, sxtw
     544:	9134fc42 	add	x2, x2, #0xd3f
     548:	940000dd 	bl	8bc <snprintk>
     54c:	37f80720 	tbnz	w0, #31, 630 <trace_vprintf+0x194>
     550:	8b20c35a 	add	x26, x26, w0, sxtw
     554:	3400093b 	cbz	w27, 678 <trace_vprintf+0x1dc>
     558:	52800340 	mov	w0, #0x1a                  	// #26
     55c:	1ad32400 	lsr	w0, w0, w19
     560:	360008c0 	tbz	w0, #0, 678 <trace_vprintf+0x1dc>
     564:	9400042a 	bl	160c <trace_ext_get_thread_id>
     568:	8b1a029b 	add	x27, x20, x26
     56c:	cb1a039c 	sub	x28, x28, x26
     570:	2a0003e4 	mov	w4, w0
     574:	37f80700 	tbnz	w0, #31, 654 <trace_vprintf+0x1b8>
     578:	f00000a2 	adrp	x2, 17000 <__text_end+0x3b10>
     57c:	aa1c03e1 	mov	x1, x28
     580:	91350c42 	add	x2, x2, #0xd43
     584:	aa1b03e0 	mov	x0, x27
     588:	52800023 	mov	w3, #0x1                   	// #1
     58c:	940000cc 	bl	8bc <snprintk>
     590:	37f80500 	tbnz	w0, #31, 630 <trace_vprintf+0x194>
     594:	8b20c353 	add	x19, x26, w0, sxtw
     598:	b4000176 	cbz	x22, 5c4 <trace_vprintf+0x128>
     59c:	f00000a2 	adrp	x2, 17000 <__text_end+0x3b10>
     5a0:	d2802001 	mov	x1, #0x100                 	// #256
     5a4:	2a1903e4 	mov	w4, w25
     5a8:	aa1603e3 	mov	x3, x22
     5ac:	91353842 	add	x2, x2, #0xd4e
     5b0:	cb130021 	sub	x1, x1, x19
     5b4:	8b130280 	add	x0, x20, x19
     5b8:	940000c1 	bl	8bc <snprintk>
     5bc:	37f803a0 	tbnz	w0, #31, 630 <trace_vprintf+0x194>
     5c0:	8b20c273 	add	x19, x19, w0, sxtw
     5c4:	910183e3 	add	x3, sp, #0x60
     5c8:	aa1803e1 	mov	x1, x24
     5cc:	aa0303e0 	mov	x0, x3
     5d0:	d2800402 	mov	x2, #0x20                  	// #32
     5d4:	97fffe8b 	bl	0 <memcpy>
     5d8:	aa0003e3 	mov	x3, x0
     5dc:	d2802001 	mov	x1, #0x100                 	// #256
     5e0:	aa1703e2 	mov	x2, x23
     5e4:	cb130021 	sub	x1, x1, x19
     5e8:	8b130280 	add	x0, x20, x19
     5ec:	9400009e 	bl	864 <vsnprintk>
     5f0:	7100001f 	cmp	w0, #0x0
     5f4:	5400004d 	b.le	5fc <trace_vprintf+0x160>
     5f8:	8b20c273 	add	x19, x19, w0, sxtw
     5fc:	f103fa7f 	cmp	x19, #0xfe
     600:	d2801fc0 	mov	x0, #0xfe                  	// #254
     604:	9a809273 	csel	x19, x19, x0, ls  // ls = plast
     608:	52800140 	mov	w0, #0xa                   	// #10
     60c:	38336a80 	strb	w0, [x20, x19]
     610:	b4000093 	cbz	x19, 620 <trace_vprintf+0x184>
     614:	38736a80 	ldrb	w0, [x20, x19]
     618:	7100281f 	cmp	w0, #0xa
     61c:	540003c0 	b.eq	694 <trace_vprintf+0x1f8>  // b.none
     620:	91022be0 	add	x0, sp, #0x8a
     624:	3833681f 	strb	wzr, [x0, x19]
     628:	aa1403e0 	mov	x0, x20
     62c:	940003ee 	bl	15e4 <trace_ext_puts>
     630:	f9409ab5 	ldr	x21, [x21, #304]
     634:	f940c7e0 	ldr	x0, [sp, #392]
     638:	f94002a1 	ldr	x1, [x21]
     63c:	eb010000 	subs	x0, x0, x1
     640:	d2800001 	mov	x1, #0x0                   	// #0
     644:	540002c0 	b.eq	69c <trace_vprintf+0x200>  // b.none
     648:	97ffff7e 	bl	440 <__stack_chk_fail>
     64c:	528009a3 	mov	w3, #0x4d                  	// #77
     650:	17ffffb0 	b	510 <trace_vprintf+0x74>
     654:	aa1c03e1 	mov	x1, x28
     658:	aa1b03e0 	mov	x0, x27
     65c:	f00000a4 	adrp	x4, 17000 <__text_end+0x3b10>
     660:	52800023 	mov	w3, #0x1                   	// #1
     664:	912c5884 	add	x4, x4, #0xb16
     668:	f00000a2 	adrp	x2, 17000 <__text_end+0x3b10>
     66c:	91352442 	add	x2, x2, #0xd49
     670:	94000093 	bl	8bc <snprintk>
     674:	17ffffc7 	b	590 <trace_vprintf+0xf4>
     678:	f103fb5f 	cmp	x26, #0xfe
     67c:	54fffda8 	b.hi	630 <trace_vprintf+0x194>  // b.pmore
     680:	91000753 	add	x19, x26, #0x1
     684:	52800400 	mov	w0, #0x20                  	// #32
     688:	383a6a80 	strb	w0, [x20, x26]
     68c:	38336a9f 	strb	wzr, [x20, x19]
     690:	17ffffcd 	b	5c4 <trace_vprintf+0x128>
     694:	d1000673 	sub	x19, x19, #0x1
     698:	17ffffde 	b	610 <trace_vprintf+0x174>
     69c:	a94153f3 	ldp	x19, x20, [sp, #16]
     6a0:	a9425bf5 	ldp	x21, x22, [sp, #32]
     6a4:	a94363f7 	ldp	x23, x24, [sp, #48]
     6a8:	a9446bf9 	ldp	x25, x26, [sp, #64]
     6ac:	a94573fb 	ldp	x27, x28, [sp, #80]
     6b0:	a8d97bfd 	ldp	x29, x30, [sp], #400
     6b4:	d65f03c0 	ret

00000000000006b8 <trace_printf>:
trace_printf():
     6b8:	a9ad7bfd 	stp	x29, x30, [sp, #-304]!
     6bc:	910003fd 	mov	x29, sp
     6c0:	a90153f3 	stp	x19, x20, [sp, #16]
     6c4:	d00000d3 	adrp	x19, 1a000 <_DYNAMIC>
     6c8:	aa0003f4 	mov	x20, x0
     6cc:	f9409a60 	ldr	x0, [x19, #304]
     6d0:	a9025bf5 	stp	x21, x22, [sp, #32]
     6d4:	2a0103f5 	mov	w21, w1
     6d8:	a90363f7 	stp	x23, x24, [sp, #48]
     6dc:	2a0203f6 	mov	w22, w2
     6e0:	12001c78 	and	w24, w3, #0xff
     6e4:	3d8027e0 	str	q0, [sp, #144]
     6e8:	aa0403f7 	mov	x23, x4
     6ec:	d2800402 	mov	x2, #0x20                  	// #32
     6f0:	3d802be1 	str	q1, [sp, #160]
     6f4:	3d802fe2 	str	q2, [sp, #176]
     6f8:	3d8033e3 	str	q3, [sp, #192]
     6fc:	3d8037e4 	str	q4, [sp, #208]
     700:	3d803be5 	str	q5, [sp, #224]
     704:	3d803fe6 	str	q6, [sp, #240]
     708:	3d8043e7 	str	q7, [sp, #256]
     70c:	a9119be5 	stp	x5, x6, [sp, #280]
     710:	910103e5 	add	x5, sp, #0x40
     714:	f90097e7 	str	x7, [sp, #296]
     718:	f9400001 	ldr	x1, [x0]
     71c:	f90047e1 	str	x1, [sp, #136]
     720:	d2800001 	mov	x1, #0x0                   	// #0
     724:	9104c3e0 	add	x0, sp, #0x130
     728:	a90683e0 	stp	x0, x0, [sp, #104]
     72c:	910443e0 	add	x0, sp, #0x110
     730:	9101a3e1 	add	x1, sp, #0x68
     734:	f9003fe0 	str	x0, [sp, #120]
     738:	128002e0 	mov	w0, #0xffffffe8            	// #-24
     73c:	b90083e0 	str	w0, [sp, #128]
     740:	12800fe0 	mov	w0, #0xffffff80            	// #-128
     744:	b90087e0 	str	w0, [sp, #132]
     748:	aa0503e0 	mov	x0, x5
     74c:	97fffe2d 	bl	0 <memcpy>
     750:	aa0003e5 	mov	x5, x0
     754:	2a1503e1 	mov	w1, w21
     758:	aa1403e0 	mov	x0, x20
     75c:	aa1703e4 	mov	x4, x23
     760:	2a1803e3 	mov	w3, w24
     764:	2a1603e2 	mov	w2, w22
     768:	97ffff4d 	bl	49c <trace_vprintf>
     76c:	f9409a73 	ldr	x19, [x19, #304]
     770:	f94047e0 	ldr	x0, [sp, #136]
     774:	f9400261 	ldr	x1, [x19]
     778:	eb010000 	subs	x0, x0, x1
     77c:	d2800001 	mov	x1, #0x0                   	// #0
     780:	54000040 	b.eq	788 <trace_printf+0xd0>  // b.none
     784:	97ffff2f 	bl	440 <__stack_chk_fail>
     788:	a94153f3 	ldp	x19, x20, [sp, #16]
     78c:	a9425bf5 	ldp	x21, x22, [sp, #32]
     790:	a94363f7 	ldp	x23, x24, [sp, #48]
     794:	a8d37bfd 	ldp	x29, x30, [sp], #304
     798:	d65f03c0 	ret

000000000000079c <dhex_dump>:
dhex_dump():
     79c:	d65f03c0 	ret

00000000000007a0 <__vsnprintf>:
__vsnprintf():
/home/qc2335/optee/optee_os/snprintk.c:138
     7a0:	a9b97bfd 	stp	x29, x30, [sp, #-112]!
     7a4:	d00000c5 	adrp	x5, 1a000 <_DYNAMIC>
     7a8:	910003fd 	mov	x29, sp
     7ac:	f94098a5 	ldr	x5, [x5, #304]
     7b0:	a90153f3 	stp	x19, x20, [sp, #16]
     7b4:	aa0103f4 	mov	x20, x1
     7b8:	a9025bf5 	stp	x21, x22, [sp, #32]
     7bc:	aa0003f3 	mov	x19, x0
/home/qc2335/optee/optee_os/snprintk.c:142
     7c0:	8b140016 	add	x22, x0, x20
/home/qc2335/optee/optee_os/snprintk.c:138
     7c4:	f9001bf7 	str	x23, [sp, #48]
     7c8:	aa0303e1 	mov	x1, x3
     7cc:	aa0203f5 	mov	x21, x2
     7d0:	12001c97 	and	w23, w4, #0xff
     7d4:	f94000a0 	ldr	x0, [x5]
     7d8:	f90037e0 	str	x0, [sp, #104]
     7dc:	d2800000 	mov	x0, #0x0                   	// #0
/home/qc2335/optee/optee_os/snprintk.c:143
     7e0:	910103e5 	add	x5, sp, #0x40
     7e4:	aa0503e0 	mov	x0, x5
     7e8:	d2800402 	mov	x2, #0x20                  	// #32
/home/qc2335/optee/optee_os/snprintk.c:142
     7ec:	f90033f6 	str	x22, [sp, #96]
/home/qc2335/optee/optee_os/snprintk.c:143
     7f0:	97fffe04 	bl	0 <memcpy>
     7f4:	aa0003e3 	mov	x3, x0
     7f8:	2a1703e4 	mov	w4, w23
     7fc:	aa1303e2 	mov	x2, x19
     800:	910183e1 	add	x1, sp, #0x60
     804:	aa1503e0 	mov	x0, x21
     808:	94000061 	bl	98c <kprintf.constprop.0>
/home/qc2335/optee/optee_os/snprintk.c:144
     80c:	f100027f 	cmp	x19, #0x0
     810:	fa401a84 	ccmp	x20, #0x0, #0x4, ne  // ne = any
     814:	540000a0 	b.eq	828 <__vsnprintf+0x88>  // b.none
/home/qc2335/optee/optee_os/snprintk.c:146
     818:	93407c01 	sxtw	x1, w0
     81c:	eb20c29f 	cmp	x20, w0, sxtw
     820:	54000148 	b.hi	848 <__vsnprintf+0xa8>  // b.pmore
/home/qc2335/optee/optee_os/snprintk.c:147
     824:	381ff2df 	sturb	wzr, [x22, #-1]
/home/qc2335/optee/optee_os/snprintk.c:152
     828:	d00000c5 	adrp	x5, 1a000 <_DYNAMIC>
     82c:	f94098a5 	ldr	x5, [x5, #304]
     830:	f94037e1 	ldr	x1, [sp, #104]
     834:	f94000a2 	ldr	x2, [x5]
     838:	eb020021 	subs	x1, x1, x2
     83c:	d2800002 	mov	x2, #0x0                   	// #0
     840:	54000080 	b.eq	850 <__vsnprintf+0xb0>  // b.none
     844:	97fffeff 	bl	440 <__stack_chk_fail>
/home/qc2335/optee/optee_os/snprintk.c:149
     848:	38216a7f 	strb	wzr, [x19, x1]
/home/qc2335/optee/optee_os/snprintk.c:151
     84c:	17fffff7 	b	828 <__vsnprintf+0x88>
/home/qc2335/optee/optee_os/snprintk.c:152
     850:	a94153f3 	ldp	x19, x20, [sp, #16]
     854:	a9425bf5 	ldp	x21, x22, [sp, #32]
     858:	f9401bf7 	ldr	x23, [sp, #48]
     85c:	a8c77bfd 	ldp	x29, x30, [sp], #112
     860:	d65f03c0 	ret

0000000000000864 <vsnprintk>:
vsnprintk():
/home/qc2335/optee/optee_os/snprintk.c:130
     864:	a9bb7bfd 	stp	x29, x30, [sp, #-80]!
/home/qc2335/optee/optee_os/snprintk.c:131
     868:	9100c3e4 	add	x4, sp, #0x30
/home/qc2335/optee/optee_os/snprintk.c:130
     86c:	910003fd 	mov	x29, sp
     870:	a90153f3 	stp	x19, x20, [sp, #16]
     874:	aa0003f3 	mov	x19, x0
     878:	aa0103f4 	mov	x20, x1
/home/qc2335/optee/optee_os/snprintk.c:131
     87c:	aa0403e0 	mov	x0, x4
/home/qc2335/optee/optee_os/snprintk.c:130
     880:	aa0303e1 	mov	x1, x3
     884:	f90013f5 	str	x21, [sp, #32]
     888:	aa0203f5 	mov	x21, x2
/home/qc2335/optee/optee_os/snprintk.c:131
     88c:	d2800402 	mov	x2, #0x20                  	// #32
     890:	97fffddc 	bl	0 <memcpy>
     894:	aa1503e2 	mov	x2, x21
     898:	aa0003e3 	mov	x3, x0
     89c:	aa1403e1 	mov	x1, x20
     8a0:	aa1303e0 	mov	x0, x19
     8a4:	52800024 	mov	w4, #0x1                   	// #1
     8a8:	97ffffbe 	bl	7a0 <__vsnprintf>
/home/qc2335/optee/optee_os/snprintk.c:132
     8ac:	a94153f3 	ldp	x19, x20, [sp, #16]
     8b0:	f94013f5 	ldr	x21, [sp, #32]
     8b4:	a8c57bfd 	ldp	x29, x30, [sp], #80
     8b8:	d65f03c0 	ret

00000000000008bc <snprintk>:
snprintk():
/home/qc2335/optee/optee_os/snprintk.c:113
     8bc:	a9ad7bfd 	stp	x29, x30, [sp, #-304]!
     8c0:	910003fd 	mov	x29, sp
     8c4:	a90153f3 	stp	x19, x20, [sp, #16]
     8c8:	d00000d3 	adrp	x19, 1a000 <_DYNAMIC>
     8cc:	aa0003f4 	mov	x20, x0
     8d0:	f9409a60 	ldr	x0, [x19, #304]
     8d4:	a9025bf5 	stp	x21, x22, [sp, #32]
     8d8:	aa0103f5 	mov	x21, x1
     8dc:	3d8023e0 	str	q0, [sp, #128]
     8e0:	aa0203f6 	mov	x22, x2
/home/qc2335/optee/optee_os/snprintk.c:118
     8e4:	d2800402 	mov	x2, #0x20                  	// #32
/home/qc2335/optee/optee_os/snprintk.c:113
     8e8:	3d8027e1 	str	q1, [sp, #144]
     8ec:	3d802be2 	str	q2, [sp, #160]
     8f0:	3d802fe3 	str	q3, [sp, #176]
     8f4:	3d8033e4 	str	q4, [sp, #192]
     8f8:	3d8037e5 	str	q5, [sp, #208]
     8fc:	3d803be6 	str	q6, [sp, #224]
     900:	3d803fe7 	str	q7, [sp, #240]
     904:	a91093e3 	stp	x3, x4, [sp, #264]
/home/qc2335/optee/optee_os/snprintk.c:118
     908:	9100c3e3 	add	x3, sp, #0x30
/home/qc2335/optee/optee_os/snprintk.c:113
     90c:	a9119be5 	stp	x5, x6, [sp, #280]
     910:	f90097e7 	str	x7, [sp, #296]
     914:	f9400001 	ldr	x1, [x0]
     918:	f9003fe1 	str	x1, [sp, #120]
     91c:	d2800001 	mov	x1, #0x0                   	// #0
/home/qc2335/optee/optee_os/snprintk.c:117
     920:	9104c3e0 	add	x0, sp, #0x130
     924:	a90583e0 	stp	x0, x0, [sp, #88]
     928:	910403e0 	add	x0, sp, #0x100
/home/qc2335/optee/optee_os/snprintk.c:118
     92c:	910163e1 	add	x1, sp, #0x58
/home/qc2335/optee/optee_os/snprintk.c:117
     930:	f90037e0 	str	x0, [sp, #104]
     934:	128004e0 	mov	w0, #0xffffffd8            	// #-40
     938:	b90073e0 	str	w0, [sp, #112]
     93c:	12800fe0 	mov	w0, #0xffffff80            	// #-128
     940:	b90077e0 	str	w0, [sp, #116]
/home/qc2335/optee/optee_os/snprintk.c:118
     944:	aa0303e0 	mov	x0, x3
     948:	97fffdae 	bl	0 <memcpy>
     94c:	aa0003e3 	mov	x3, x0
     950:	aa1603e2 	mov	x2, x22
     954:	aa1503e1 	mov	x1, x21
     958:	aa1403e0 	mov	x0, x20
     95c:	97ffffc2 	bl	864 <vsnprintk>
/home/qc2335/optee/optee_os/snprintk.c:122
     960:	f9409a73 	ldr	x19, [x19, #304]
     964:	f9403fe1 	ldr	x1, [sp, #120]
     968:	f9400262 	ldr	x2, [x19]
     96c:	eb020021 	subs	x1, x1, x2
     970:	d2800002 	mov	x2, #0x0                   	// #0
     974:	54000040 	b.eq	97c <snprintk+0xc0>  // b.none
     978:	97fffeb2 	bl	440 <__stack_chk_fail>
     97c:	a94153f3 	ldp	x19, x20, [sp, #16]
     980:	a9425bf5 	ldp	x21, x22, [sp, #32]
     984:	a8d37bfd 	ldp	x29, x30, [sp], #304
     988:	d65f03c0 	ret

000000000000098c <kprintf.constprop.0>:
kprintf():
/home/qc2335/optee/optee_os/snprintk.c:242
     98c:	d103c3ff 	sub	sp, sp, #0xf0
     990:	aa0103e9 	mov	x9, x1
     994:	a9037bfd 	stp	x29, x30, [sp, #48]
     998:	9100c3fd 	add	x29, sp, #0x30
     99c:	a90873fb 	stp	x27, x28, [sp, #128]
     9a0:	aa0003fc 	mov	x28, x0
     9a4:	12001c80 	and	w0, w4, #0xff
     9a8:	b900abe0 	str	w0, [sp, #168]
     9ac:	d00000c0 	adrp	x0, 1a000 <_DYNAMIC>
     9b0:	a90453f3 	stp	x19, x20, [sp, #64]
     9b4:	b9401874 	ldr	w20, [x3, #24]
     9b8:	f9409800 	ldr	x0, [x0, #304]
     9bc:	a9055bf5 	stp	x21, x22, [sp, #80]
     9c0:	aa0203f6 	mov	x22, x2
     9c4:	a90663f7 	stp	x23, x24, [sp, #96]
     9c8:	a9076bf9 	stp	x25, x26, [sp, #112]
     9cc:	f9400001 	ldr	x1, [x0]
     9d0:	f90077e1 	str	x1, [sp, #232]
     9d4:	d2800001 	mov	x1, #0x0                   	// #0
     9d8:	a9406c73 	ldp	x19, x27, [x3]
/home/qc2335/optee/optee_os/snprintk.c:264
     9dc:	b4000489 	cbz	x9, a6c <kprintf.constprop.0+0xe0>
/home/qc2335/optee/optee_os/snprintk.c:265
     9e0:	f9400139 	ldr	x25, [x9]
/home/qc2335/optee/optee_os/snprintk.c:297
     9e4:	f00000b8 	adrp	x24, 17000 <__text_end+0x3b10>
/home/qc2335/optee/optee_os/snprintk.c:275
     9e8:	d2800017 	mov	x23, #0x0                   	// #0
/home/qc2335/optee/optee_os/snprintk.c:297
     9ec:	9118e300 	add	x0, x24, #0x638
/home/qc2335/optee/optee_os/snprintk.c:273
     9f0:	5280001a 	mov	w26, #0x0                   	// #0
/home/qc2335/optee/optee_os/snprintk.c:297
     9f4:	f9004fe0 	str	x0, [sp, #152]
/home/qc2335/optee/optee_os/snprintk.c:281
     9f8:	39400380 	ldrb	w0, [x28]
     9fc:	7100941f 	cmp	w0, #0x25
     a00:	7a401804 	ccmp	w0, #0x0, #0x4, ne  // ne = any
     a04:	54000381 	b.ne	a74 <kprintf.constprop.0+0xe8>  // b.any
/home/qc2335/optee/optee_os/snprintk.c:285
     a08:	340051a0 	cbz	w0, 143c <kprintf.constprop.0+0xab0>
/home/qc2335/optee/optee_os/snprintk.c:293
     a0c:	12800005 	mov	w5, #0xffffffff            	// #-1
/home/qc2335/optee/optee_os/snprintk.c:297
     a10:	f00000a2 	adrp	x2, 17000 <__text_end+0x3b10>
/home/qc2335/optee/optee_os/snprintk.c:288
     a14:	9100079c 	add	x28, x28, #0x1
     a18:	2a1403e4 	mov	w4, w20
     a1c:	aa1303e3 	mov	x3, x19
/home/qc2335/optee/optee_os/snprintk.c:297
     a20:	91195042 	add	x2, x2, #0x654
/home/qc2335/optee/optee_os/snprintk.c:330
     a24:	2a0503e7 	mov	w7, w5
/home/qc2335/optee/optee_os/snprintk.c:294
     a28:	52800001 	mov	w1, #0x0                   	// #0
/home/qc2335/optee/optee_os/snprintk.c:292
     a2c:	5280000b 	mov	w11, #0x0                   	// #0
/home/qc2335/optee/optee_os/snprintk.c:290
     a30:	52800015 	mov	w21, #0x0                   	// #0
/home/qc2335/optee/optee_os/snprintk.c:305
     a34:	5280040d 	mov	w13, #0x20                  	// #32
/home/qc2335/optee/optee_os/snprintk.c:296
     a38:	38401798 	ldrb	w24, [x28], #1
/home/qc2335/optee/optee_os/snprintk.c:297
     a3c:	7100e71f 	cmp	w24, #0x39
     a40:	5400036c 	b.gt	aac <kprintf.constprop.0+0x120>
     a44:	71007f1f 	cmp	w24, #0x1f
     a48:	54004f8d 	b.le	1438 <kprintf.constprop.0+0xaac>
     a4c:	51008300 	sub	w0, w24, #0x20
     a50:	7100641f 	cmp	w0, #0x19
     a54:	54000328 	b.hi	ab8 <kprintf.constprop.0+0x12c>  // b.pmore
     a58:	f9404fe6 	ldr	x6, [sp, #152]
     a5c:	386048c0 	ldrb	w0, [x6, w0, uxtw]
     a60:	10000066 	adr	x6, a6c <kprintf.constprop.0+0xe0>
     a64:	8b2088c0 	add	x0, x6, w0, sxtb #2
     a68:	d61f0000 	br	x0
/home/qc2335/optee/optee_os/snprintk.c:267
     a6c:	d2800019 	mov	x25, #0x0                   	// #0
     a70:	17ffffdd 	b	9e4 <kprintf.constprop.0+0x58>
/home/qc2335/optee/optee_os/snprintk.c:282
     a74:	1100075a 	add	w26, w26, #0x1
/home/qc2335/optee/optee_os/snprintk.c:283
     a78:	b40000b6 	cbz	x22, a8c <kprintf.constprop.0+0x100>
     a7c:	f100013f 	cmp	x9, #0x0
     a80:	fa5912c0 	ccmp	x22, x25, #0x0, ne  // ne = any
     a84:	54000042 	b.cs	a8c <kprintf.constprop.0+0x100>  // b.hs, b.nlast
     a88:	380016c0 	strb	w0, [x22], #1
/home/qc2335/optee/optee_os/snprintk.c:281
     a8c:	9100079c 	add	x28, x28, #0x1
     a90:	17ffffda 	b	9f8 <kprintf.constprop.0+0x6c>
/home/qc2335/optee/optee_os/snprintk.c:297
     a94:	52800561 	mov	w1, #0x2b                  	// #43
     a98:	17ffffe8 	b	a38 <kprintf.constprop.0+0xac>
     a9c:	78605840 	ldrh	w0, [x2, w0, uxtw #1]
     aa0:	10000066 	adr	x6, aac <kprintf.constprop.0+0x120>
     aa4:	8b20a8c0 	add	x0, x6, w0, sxth #2
     aa8:	d61f0000 	br	x0
     aac:	51011300 	sub	w0, w24, #0x44
     ab0:	7100d81f 	cmp	w0, #0x36
     ab4:	54ffff49 	b.ls	a9c <kprintf.constprop.0+0x110>  // b.plast
/home/qc2335/optee/optee_os/snprintk.c:554
     ab8:	2a0403f4 	mov	w20, w4
     abc:	aa0303f3 	mov	x19, x3
/home/qc2335/optee/optee_os/snprintk.c:551
     ac0:	390303f8 	strb	w24, [sp, #192]
/home/qc2335/optee/optee_os/snprintk.c:554
     ac4:	1400005a 	b	c2c <kprintf.constprop.0+0x2a0>
/home/qc2335/optee/optee_os/snprintk.c:305
     ac8:	7100003f 	cmp	w1, #0x0
     acc:	1a8d1021 	csel	w1, w1, w13, ne  // ne = any
     ad0:	17ffffda 	b	a38 <kprintf.constprop.0+0xac>
/home/qc2335/optee/optee_os/snprintk.c:308
     ad4:	320002b5 	orr	w21, w21, #0x1
/home/qc2335/optee/optee_os/snprintk.c:309
     ad8:	17ffffd8 	b	a38 <kprintf.constprop.0+0xac>
/home/qc2335/optee/optee_os/snprintk.c:317
     adc:	37f80124 	tbnz	w4, #31, b00 <kprintf.constprop.0+0x174>
     ae0:	91002c66 	add	x6, x3, #0xb
     ae4:	aa0303e0 	mov	x0, x3
     ae8:	927df0c3 	and	x3, x6, #0xfffffffffffffff8
     aec:	b940000b 	ldr	w11, [x0]
     af0:	36fffa4b 	tbz	w11, #31, a38 <kprintf.constprop.0+0xac>
/home/qc2335/optee/optee_os/snprintk.c:319
     af4:	4b0b03eb 	neg	w11, w11
/home/qc2335/optee/optee_os/snprintk.c:322
     af8:	321e02b5 	orr	w21, w21, #0x4
/home/qc2335/optee/optee_os/snprintk.c:323
     afc:	17ffffcf 	b	a38 <kprintf.constprop.0+0xac>
/home/qc2335/optee/optee_os/snprintk.c:317
     b00:	11002086 	add	w6, w4, #0x8
     b04:	710000df 	cmp	w6, #0x0
     b08:	540000cd 	b.le	b20 <kprintf.constprop.0+0x194>
     b0c:	91002c68 	add	x8, x3, #0xb
     b10:	aa0303e0 	mov	x0, x3
     b14:	2a0603e4 	mov	w4, w6
     b18:	927df103 	and	x3, x8, #0xfffffffffffffff8
     b1c:	17fffff4 	b	aec <kprintf.constprop.0+0x160>
     b20:	8b24c360 	add	x0, x27, w4, sxtw
     b24:	2a0603e4 	mov	w4, w6
     b28:	17fffff1 	b	aec <kprintf.constprop.0+0x160>
/home/qc2335/optee/optee_os/snprintk.c:328
     b2c:	38401798 	ldrb	w24, [x28], #1
     b30:	7100ab1f 	cmp	w24, #0x2a
     b34:	54000361 	b.ne	ba0 <kprintf.constprop.0+0x214>  // b.any
/home/qc2335/optee/optee_os/snprintk.c:329
     b38:	37f80144 	tbnz	w4, #31, b60 <kprintf.constprop.0+0x1d4>
     b3c:	91002c60 	add	x0, x3, #0xb
     b40:	2a0403e6 	mov	w6, w4
     b44:	927df000 	and	x0, x0, #0xfffffffffffffff8
/home/qc2335/optee/optee_os/snprintk.c:330
     b48:	b9400065 	ldr	w5, [x3]
/home/qc2335/optee/optee_os/snprintk.c:331
     b4c:	2a0603e4 	mov	w4, w6
     b50:	aa0003e3 	mov	x3, x0
/home/qc2335/optee/optee_os/snprintk.c:330
     b54:	710000bf 	cmp	w5, #0x0
     b58:	1a87a0a5 	csel	w5, w5, w7, ge  // ge = tcont
/home/qc2335/optee/optee_os/snprintk.c:331
     b5c:	17ffffb7 	b	a38 <kprintf.constprop.0+0xac>
/home/qc2335/optee/optee_os/snprintk.c:329
     b60:	11002086 	add	w6, w4, #0x8
     b64:	710000df 	cmp	w6, #0x0
     b68:	5400008d 	b.le	b78 <kprintf.constprop.0+0x1ec>
     b6c:	91002c60 	add	x0, x3, #0xb
     b70:	927df000 	and	x0, x0, #0xfffffffffffffff8
     b74:	17fffff5 	b	b48 <kprintf.constprop.0+0x1bc>
     b78:	aa0303e0 	mov	x0, x3
     b7c:	8b24c363 	add	x3, x27, w4, sxtw
     b80:	17fffff2 	b	b48 <kprintf.constprop.0+0x1bc>
/home/qc2335/optee/optee_os/snprintk.c:335
     b84:	52800146 	mov	w6, #0xa                   	// #10
/home/qc2335/optee/optee_os/snprintk.c:336
     b88:	38401798 	ldrb	w24, [x28], #1
/home/qc2335/optee/optee_os/snprintk.c:335
     b8c:	1b0600a5 	madd	w5, w5, w6, w0
/home/qc2335/optee/optee_os/snprintk.c:334
     b90:	5100c300 	sub	w0, w24, #0x30
     b94:	7100241f 	cmp	w0, #0x9
     b98:	54ffff69 	b.ls	b84 <kprintf.constprop.0+0x1f8>  // b.plast
     b9c:	17ffffa8 	b	a3c <kprintf.constprop.0+0xb0>
/home/qc2335/optee/optee_os/snprintk.c:333
     ba0:	52800005 	mov	w5, #0x0                   	// #0
     ba4:	17fffffb 	b	b90 <kprintf.constprop.0+0x204>
/home/qc2335/optee/optee_os/snprintk.c:346
     ba8:	321602b5 	orr	w21, w21, #0x400
/home/qc2335/optee/optee_os/snprintk.c:347
     bac:	17ffffa3 	b	a38 <kprintf.constprop.0+0xac>
/home/qc2335/optee/optee_os/snprintk.c:297
     bb0:	5280000b 	mov	w11, #0x0                   	// #0
/home/qc2335/optee/optee_os/snprintk.c:352
     bb4:	5100c308 	sub	w8, w24, #0x30
     bb8:	52800140 	mov	w0, #0xa                   	// #10
/home/qc2335/optee/optee_os/snprintk.c:353
     bbc:	38401798 	ldrb	w24, [x28], #1
/home/qc2335/optee/optee_os/snprintk.c:352
     bc0:	1b00216b 	madd	w11, w11, w0, w8
/home/qc2335/optee/optee_os/snprintk.c:354
     bc4:	5100c300 	sub	w0, w24, #0x30
     bc8:	7100241f 	cmp	w0, #0x9
     bcc:	54ffff49 	b.ls	bb4 <kprintf.constprop.0+0x228>  // b.plast
     bd0:	17ffff9b 	b	a3c <kprintf.constprop.0+0xb0>
/home/qc2335/optee/optee_os/snprintk.c:358
     bd4:	321a02b5 	orr	w21, w21, #0x40
/home/qc2335/optee/optee_os/snprintk.c:359
     bd8:	17ffff98 	b	a38 <kprintf.constprop.0+0xac>
/home/qc2335/optee/optee_os/snprintk.c:361
     bdc:	321902b5 	orr	w21, w21, #0x80
/home/qc2335/optee/optee_os/snprintk.c:362
     be0:	17ffff96 	b	a38 <kprintf.constprop.0+0xac>
/home/qc2335/optee/optee_os/snprintk.c:364
     be4:	39400380 	ldrb	w0, [x28]
     be8:	7101b01f 	cmp	w0, #0x6c
     bec:	54000081 	b.ne	bfc <kprintf.constprop.0+0x270>  // b.any
/home/qc2335/optee/optee_os/snprintk.c:328
     bf0:	9100079c 	add	x28, x28, #0x1
/home/qc2335/optee/optee_os/snprintk.c:372
     bf4:	321b02b5 	orr	w21, w21, #0x20
/home/qc2335/optee/optee_os/snprintk.c:373
     bf8:	17ffff90 	b	a38 <kprintf.constprop.0+0xac>
/home/qc2335/optee/optee_os/snprintk.c:368
     bfc:	321c02b5 	orr	w21, w21, #0x10
     c00:	17ffff8e 	b	a38 <kprintf.constprop.0+0xac>
/home/qc2335/optee/optee_os/snprintk.c:375
     c04:	321802b5 	orr	w21, w21, #0x100
/home/qc2335/optee/optee_os/snprintk.c:376
     c08:	17ffff8c 	b	a38 <kprintf.constprop.0+0xac>
/home/qc2335/optee/optee_os/snprintk.c:378
     c0c:	321702b5 	orr	w21, w21, #0x200
/home/qc2335/optee/optee_os/snprintk.c:379
     c10:	17ffff8a 	b	a38 <kprintf.constprop.0+0xac>
/home/qc2335/optee/optee_os/snprintk.c:381
     c14:	37f80164 	tbnz	w4, #31, c40 <kprintf.constprop.0+0x2b4>
     c18:	91002c73 	add	x19, x3, #0xb
     c1c:	2a0403f4 	mov	w20, w4
     c20:	927df273 	and	x19, x19, #0xfffffffffffffff8
     c24:	b9400060 	ldr	w0, [x3]
     c28:	390303e0 	strb	w0, [sp, #192]
/home/qc2335/optee/optee_os/snprintk.c:550
     c2c:	910303ed 	add	x13, sp, #0xc0
/home/qc2335/optee/optee_os/snprintk.c:552
     c30:	52800025 	mov	w5, #0x1                   	// #1
/home/qc2335/optee/optee_os/snprintk.c:291
     c34:	52800002 	mov	w2, #0x0                   	// #0
/home/qc2335/optee/optee_os/snprintk.c:553
     c38:	52800001 	mov	w1, #0x0                   	// #0
/home/qc2335/optee/optee_os/snprintk.c:554
     c3c:	140000fa 	b	1024 <kprintf.constprop.0+0x698>
/home/qc2335/optee/optee_os/snprintk.c:381
     c40:	11002094 	add	w20, w4, #0x8
     c44:	7100029f 	cmp	w20, #0x0
     c48:	5400008d 	b.le	c58 <kprintf.constprop.0+0x2cc>
     c4c:	91002c73 	add	x19, x3, #0xb
     c50:	927df273 	and	x19, x19, #0xfffffffffffffff8
     c54:	17fffff4 	b	c24 <kprintf.constprop.0+0x298>
     c58:	aa0303f3 	mov	x19, x3
     c5c:	8b24c363 	add	x3, x27, w4, sxtw
     c60:	17fffff1 	b	c24 <kprintf.constprop.0+0x298>
/home/qc2335/optee/optee_os/snprintk.c:386
     c64:	321c02b5 	orr	w21, w21, #0x10
/home/qc2335/optee/optee_os/snprintk.c:390
     c68:	363802f5 	tbz	w21, #7, cc4 <kprintf.constprop.0+0x338>
     c6c:	37f80424 	tbnz	w4, #31, cf0 <kprintf.constprop.0+0x364>
     c70:	91003c73 	add	x19, x3, #0xf
     c74:	2a0403f4 	mov	w20, w4
     c78:	927df273 	and	x19, x19, #0xfffffffffffffff8
     c7c:	f9400062 	ldr	x2, [x3]
/home/qc2335/optee/optee_os/snprintk.c:391
     c80:	b6f82d22 	tbz	x2, #63, 1224 <kprintf.constprop.0+0x898>
/home/qc2335/optee/optee_os/snprintk.c:392
     c84:	cb0203e2 	neg	x2, x2
/home/qc2335/optee/optee_os/snprintk.c:395
     c88:	52800020 	mov	w0, #0x1                   	// #1
/home/qc2335/optee/optee_os/snprintk.c:393
     c8c:	528005a1 	mov	w1, #0x2d                  	// #45
/home/qc2335/optee/optee_os/snprintk.c:494
     c90:	310004bf 	cmn	w5, #0x1
     c94:	54003b21 	b.ne	13f8 <kprintf.constprop.0+0xa6c>  // b.any
/home/qc2335/optee/optee_os/snprintk.c:509
     c98:	7100041f 	cmp	w0, #0x1
     c9c:	54002c80 	b.eq	122c <kprintf.constprop.0+0x8a0>  // b.none
     ca0:	7100081f 	cmp	w0, #0x2
     ca4:	54000ea1 	b.ne	e78 <kprintf.constprop.0+0x4ec>  // b.any
/home/qc2335/optee/optee_os/snprintk.c:502
     ca8:	910397ed 	add	x13, sp, #0xe5
/home/qc2335/optee/optee_os/snprintk.c:531
     cac:	92400c40 	and	x0, x2, #0xf
/home/qc2335/optee/optee_os/snprintk.c:532
     cb0:	d344fc42 	lsr	x2, x2, #4
/home/qc2335/optee/optee_os/snprintk.c:531
     cb4:	38606ae0 	ldrb	w0, [x23, x0]
     cb8:	381ffda0 	strb	w0, [x13, #-1]!
/home/qc2335/optee/optee_os/snprintk.c:533
     cbc:	b5ffff82 	cbnz	x2, cac <kprintf.constprop.0+0x320>
     cc0:	1400007b 	b	eac <kprintf.constprop.0+0x520>
/home/qc2335/optee/optee_os/snprintk.c:390
     cc4:	3747fd55 	tbnz	w21, #8, c6c <kprintf.constprop.0+0x2e0>
     cc8:	374ffd35 	tbnz	w21, #9, c6c <kprintf.constprop.0+0x2e0>
     ccc:	372ffd15 	tbnz	w21, #5, c6c <kprintf.constprop.0+0x2e0>
     cd0:	3727fcf5 	tbnz	w21, #4, c6c <kprintf.constprop.0+0x2e0>
     cd4:	36300335 	tbz	w21, #6, d38 <kprintf.constprop.0+0x3ac>
     cd8:	37f801e4 	tbnz	w4, #31, d14 <kprintf.constprop.0+0x388>
     cdc:	91002c73 	add	x19, x3, #0xb
     ce0:	2a0403f4 	mov	w20, w4
     ce4:	927df273 	and	x19, x19, #0xfffffffffffffff8
     ce8:	79800062 	ldrsh	x2, [x3]
     cec:	17ffffe5 	b	c80 <kprintf.constprop.0+0x2f4>
     cf0:	11002094 	add	w20, w4, #0x8
     cf4:	7100029f 	cmp	w20, #0x0
     cf8:	5400008d 	b.le	d08 <kprintf.constprop.0+0x37c>
     cfc:	91003c73 	add	x19, x3, #0xf
     d00:	927df273 	and	x19, x19, #0xfffffffffffffff8
     d04:	17ffffde 	b	c7c <kprintf.constprop.0+0x2f0>
     d08:	aa0303f3 	mov	x19, x3
     d0c:	8b24c363 	add	x3, x27, w4, sxtw
     d10:	17ffffdb 	b	c7c <kprintf.constprop.0+0x2f0>
     d14:	11002094 	add	w20, w4, #0x8
     d18:	7100029f 	cmp	w20, #0x0
     d1c:	5400008d 	b.le	d2c <kprintf.constprop.0+0x3a0>
     d20:	91002c73 	add	x19, x3, #0xb
     d24:	927df273 	and	x19, x19, #0xfffffffffffffff8
     d28:	17fffff0 	b	ce8 <kprintf.constprop.0+0x35c>
     d2c:	aa0303f3 	mov	x19, x3
     d30:	8b24c363 	add	x3, x27, w4, sxtw
     d34:	17ffffed 	b	ce8 <kprintf.constprop.0+0x35c>
     d38:	37f800c4 	tbnz	w4, #31, d50 <kprintf.constprop.0+0x3c4>
     d3c:	91002c73 	add	x19, x3, #0xb
     d40:	2a0403f4 	mov	w20, w4
     d44:	927df273 	and	x19, x19, #0xfffffffffffffff8
     d48:	b9800062 	ldrsw	x2, [x3]
     d4c:	17ffffcd 	b	c80 <kprintf.constprop.0+0x2f4>
     d50:	11002094 	add	w20, w4, #0x8
     d54:	7100029f 	cmp	w20, #0x0
     d58:	5400008d 	b.le	d68 <kprintf.constprop.0+0x3dc>
     d5c:	91002c73 	add	x19, x3, #0xb
     d60:	927df273 	and	x19, x19, #0xfffffffffffffff8
     d64:	17fffff9 	b	d48 <kprintf.constprop.0+0x3bc>
     d68:	aa0303f3 	mov	x19, x3
     d6c:	8b24c363 	add	x3, x27, w4, sxtw
     d70:	17fffff6 	b	d48 <kprintf.constprop.0+0x3bc>
/home/qc2335/optee/optee_os/snprintk.c:398
     d74:	36380135 	tbz	w21, #7, d98 <kprintf.constprop.0+0x40c>
/home/qc2335/optee/optee_os/snprintk.c:407
     d78:	37f80284 	tbnz	w4, #31, dc8 <kprintf.constprop.0+0x43c>
     d7c:	91003c73 	add	x19, x3, #0xf
     d80:	2a0403f4 	mov	w20, w4
     d84:	927df273 	and	x19, x19, #0xfffffffffffffff8
     d88:	f9400060 	ldr	x0, [x3]
     d8c:	93407f41 	sxtw	x1, w26
     d90:	f9000001 	str	x1, [x0]
     d94:	17ffff19 	b	9f8 <kprintf.constprop.0+0x6c>
/home/qc2335/optee/optee_os/snprintk.c:400
     d98:	3747ff15 	tbnz	w21, #8, d78 <kprintf.constprop.0+0x3ec>
/home/qc2335/optee/optee_os/snprintk.c:402
     d9c:	374ffef5 	tbnz	w21, #9, d78 <kprintf.constprop.0+0x3ec>
/home/qc2335/optee/optee_os/snprintk.c:404
     da0:	372ffed5 	tbnz	w21, #5, d78 <kprintf.constprop.0+0x3ec>
/home/qc2335/optee/optee_os/snprintk.c:406
     da4:	3727feb5 	tbnz	w21, #4, d78 <kprintf.constprop.0+0x3ec>
/home/qc2335/optee/optee_os/snprintk.c:408
     da8:	36300355 	tbz	w21, #6, e10 <kprintf.constprop.0+0x484>
/home/qc2335/optee/optee_os/snprintk.c:409
     dac:	37f80204 	tbnz	w4, #31, dec <kprintf.constprop.0+0x460>
     db0:	91003c73 	add	x19, x3, #0xf
     db4:	2a0403f4 	mov	w20, w4
     db8:	927df273 	and	x19, x19, #0xfffffffffffffff8
     dbc:	f9400060 	ldr	x0, [x3]
     dc0:	7900001a 	strh	w26, [x0]
     dc4:	17ffff0d 	b	9f8 <kprintf.constprop.0+0x6c>
/home/qc2335/optee/optee_os/snprintk.c:407
     dc8:	11002094 	add	w20, w4, #0x8
     dcc:	7100029f 	cmp	w20, #0x0
     dd0:	5400008d 	b.le	de0 <kprintf.constprop.0+0x454>
     dd4:	91003c73 	add	x19, x3, #0xf
     dd8:	927df273 	and	x19, x19, #0xfffffffffffffff8
     ddc:	17ffffeb 	b	d88 <kprintf.constprop.0+0x3fc>
     de0:	aa0303f3 	mov	x19, x3
     de4:	8b24c363 	add	x3, x27, w4, sxtw
     de8:	17ffffe8 	b	d88 <kprintf.constprop.0+0x3fc>
/home/qc2335/optee/optee_os/snprintk.c:409
     dec:	11002094 	add	w20, w4, #0x8
     df0:	7100029f 	cmp	w20, #0x0
     df4:	5400008d 	b.le	e04 <kprintf.constprop.0+0x478>
     df8:	91003c73 	add	x19, x3, #0xf
     dfc:	927df273 	and	x19, x19, #0xfffffffffffffff8
     e00:	17ffffef 	b	dbc <kprintf.constprop.0+0x430>
     e04:	aa0303f3 	mov	x19, x3
     e08:	8b24c363 	add	x3, x27, w4, sxtw
     e0c:	17ffffec 	b	dbc <kprintf.constprop.0+0x430>
/home/qc2335/optee/optee_os/snprintk.c:411
     e10:	37f800e4 	tbnz	w4, #31, e2c <kprintf.constprop.0+0x4a0>
     e14:	91003c73 	add	x19, x3, #0xf
     e18:	2a0403f4 	mov	w20, w4
     e1c:	927df273 	and	x19, x19, #0xfffffffffffffff8
     e20:	f9400060 	ldr	x0, [x3]
     e24:	b900001a 	str	w26, [x0]
     e28:	17fffef4 	b	9f8 <kprintf.constprop.0+0x6c>
     e2c:	11002094 	add	w20, w4, #0x8
     e30:	7100029f 	cmp	w20, #0x0
     e34:	5400008d 	b.le	e44 <kprintf.constprop.0+0x4b8>
     e38:	91003c73 	add	x19, x3, #0xf
     e3c:	927df273 	and	x19, x19, #0xfffffffffffffff8
     e40:	17fffff8 	b	e20 <kprintf.constprop.0+0x494>
     e44:	aa0303f3 	mov	x19, x3
     e48:	8b24c363 	add	x3, x27, w4, sxtw
     e4c:	17fffff5 	b	e20 <kprintf.constprop.0+0x494>
/home/qc2335/optee/optee_os/snprintk.c:414
     e50:	321c02b5 	orr	w21, w21, #0x10
/home/qc2335/optee/optee_os/snprintk.c:417
     e54:	36380355 	tbz	w21, #7, ebc <kprintf.constprop.0+0x530>
     e58:	37f80484 	tbnz	w4, #31, ee8 <kprintf.constprop.0+0x55c>
     e5c:	91003c73 	add	x19, x3, #0xf
     e60:	2a0403f4 	mov	w20, w4
     e64:	927df273 	and	x19, x19, #0xfffffffffffffff8
     e68:	f9400062 	ldr	x2, [x3]
/home/qc2335/optee/optee_os/snprintk.c:494
     e6c:	52800001 	mov	w1, #0x0                   	// #0
     e70:	310004bf 	cmn	w5, #0x1
     e74:	54002c01 	b.ne	13f4 <kprintf.constprop.0+0xa68>  // b.any
/home/qc2335/optee/optee_os/snprintk.c:502
     e78:	910397ed 	add	x13, sp, #0xe5
/home/qc2335/optee/optee_os/snprintk.c:512
     e7c:	12000840 	and	w0, w2, #0x7
     e80:	aa0d03e4 	mov	x4, x13
     e84:	1100c000 	add	w0, w0, #0x30
     e88:	381ffda0 	strb	w0, [x13, #-1]!
/home/qc2335/optee/optee_os/snprintk.c:513
     e8c:	d343fc42 	lsr	x2, x2, #3
/home/qc2335/optee/optee_os/snprintk.c:514
     e90:	b5ffff62 	cbnz	x2, e7c <kprintf.constprop.0+0x4f0>
/home/qc2335/optee/optee_os/snprintk.c:516
     e94:	360000d5 	tbz	w21, #0, eac <kprintf.constprop.0+0x520>
     e98:	7100c01f 	cmp	w0, #0x30
     e9c:	54000080 	b.eq	eac <kprintf.constprop.0+0x520>  // b.none
/home/qc2335/optee/optee_os/snprintk.c:517
     ea0:	52800600 	mov	w0, #0x30                  	// #48
     ea4:	381ff1a0 	sturb	w0, [x13, #-1]
     ea8:	d100088d 	sub	x13, x4, #0x2
/home/qc2335/optee/optee_os/snprintk.c:543
     eac:	2a0503e2 	mov	w2, w5
     eb0:	910397e5 	add	x5, sp, #0xe5
     eb4:	4b0d00a5 	sub	w5, w5, w13
     eb8:	1400005b 	b	1024 <kprintf.constprop.0+0x698>
/home/qc2335/optee/optee_os/snprintk.c:417
     ebc:	3747fcf5 	tbnz	w21, #8, e58 <kprintf.constprop.0+0x4cc>
     ec0:	374ffcd5 	tbnz	w21, #9, e58 <kprintf.constprop.0+0x4cc>
     ec4:	372ffcb5 	tbnz	w21, #5, e58 <kprintf.constprop.0+0x4cc>
     ec8:	3727fc95 	tbnz	w21, #4, e58 <kprintf.constprop.0+0x4cc>
     ecc:	36300335 	tbz	w21, #6, f30 <kprintf.constprop.0+0x5a4>
     ed0:	37f801e4 	tbnz	w4, #31, f0c <kprintf.constprop.0+0x580>
     ed4:	91002c73 	add	x19, x3, #0xb
     ed8:	2a0403f4 	mov	w20, w4
     edc:	927df273 	and	x19, x19, #0xfffffffffffffff8
     ee0:	79400062 	ldrh	w2, [x3]
     ee4:	17ffffe2 	b	e6c <kprintf.constprop.0+0x4e0>
     ee8:	11002094 	add	w20, w4, #0x8
     eec:	7100029f 	cmp	w20, #0x0
     ef0:	5400008d 	b.le	f00 <kprintf.constprop.0+0x574>
     ef4:	91003c73 	add	x19, x3, #0xf
     ef8:	927df273 	and	x19, x19, #0xfffffffffffffff8
     efc:	17ffffdb 	b	e68 <kprintf.constprop.0+0x4dc>
     f00:	aa0303f3 	mov	x19, x3
     f04:	8b24c363 	add	x3, x27, w4, sxtw
     f08:	17ffffd8 	b	e68 <kprintf.constprop.0+0x4dc>
     f0c:	11002094 	add	w20, w4, #0x8
     f10:	7100029f 	cmp	w20, #0x0
     f14:	5400008d 	b.le	f24 <kprintf.constprop.0+0x598>
     f18:	91002c73 	add	x19, x3, #0xb
     f1c:	927df273 	and	x19, x19, #0xfffffffffffffff8
     f20:	17fffff0 	b	ee0 <kprintf.constprop.0+0x554>
     f24:	aa0303f3 	mov	x19, x3
     f28:	8b24c363 	add	x3, x27, w4, sxtw
     f2c:	17ffffed 	b	ee0 <kprintf.constprop.0+0x554>
     f30:	37f800c4 	tbnz	w4, #31, f48 <kprintf.constprop.0+0x5bc>
     f34:	91002c73 	add	x19, x3, #0xb
     f38:	2a0403f4 	mov	w20, w4
     f3c:	927df273 	and	x19, x19, #0xfffffffffffffff8
     f40:	b9400062 	ldr	w2, [x3]
     f44:	17ffffca 	b	e6c <kprintf.constprop.0+0x4e0>
     f48:	11002094 	add	w20, w4, #0x8
     f4c:	7100029f 	cmp	w20, #0x0
     f50:	5400008d 	b.le	f60 <kprintf.constprop.0+0x5d4>
     f54:	91002c73 	add	x19, x3, #0xb
     f58:	927df273 	and	x19, x19, #0xfffffffffffffff8
     f5c:	17fffff9 	b	f40 <kprintf.constprop.0+0x5b4>
     f60:	aa0303f3 	mov	x19, x3
     f64:	8b24c363 	add	x3, x27, w4, sxtw
     f68:	17fffff6 	b	f40 <kprintf.constprop.0+0x5b4>
/home/qc2335/optee/optee_os/snprintk.c:421
     f6c:	b940abe0 	ldr	w0, [sp, #168]
     f70:	34000c80 	cbz	w0, 1100 <kprintf.constprop.0+0x774>
     f74:	39400380 	ldrb	w0, [x28]
     f78:	7101541f 	cmp	w0, #0x55
     f7c:	54000c21 	b.ne	1100 <kprintf.constprop.0+0x774>  // b.any
     f80:	39400780 	ldrb	w0, [x28, #1]
     f84:	7101b01f 	cmp	w0, #0x6c
     f88:	54000bc1 	b.ne	1100 <kprintf.constprop.0+0x774>  // b.any
/home/qc2335/optee/optee_os/snprintk.c:426
     f8c:	91000b9c 	add	x28, x28, #0x2
/home/qc2335/optee/optee_os/snprintk.c:427
     f90:	37f80a64 	tbnz	w4, #31, 10dc <kprintf.constprop.0+0x750>
     f94:	91003c73 	add	x19, x3, #0xf
     f98:	2a0403f4 	mov	w20, w4
     f9c:	927df273 	and	x19, x19, #0xfffffffffffffff8
     fa0:	f9400061 	ldr	x1, [x3]
uuid2str():
/home/qc2335/optee/optee_os/snprintk.c:229
     fa4:	910303ed 	add	x13, sp, #0xc0
     fa8:	f00000a2 	adrp	x2, 17000 <__text_end+0x3b10>
     fac:	91358442 	add	x2, x2, #0xd61
     fb0:	f90053ed 	str	x13, [sp, #160]
     fb4:	39403c20 	ldrb	w0, [x1, #15]
     fb8:	39402427 	ldrb	w7, [x1, #9]
     fbc:	39402026 	ldrb	w6, [x1, #8]
     fc0:	79400c25 	ldrh	w5, [x1, #6]
     fc4:	79400824 	ldrh	w4, [x1, #4]
     fc8:	b9002be0 	str	w0, [sp, #40]
     fcc:	b900afeb 	str	w11, [sp, #172]
     fd0:	39403820 	ldrb	w0, [x1, #14]
     fd4:	b90023e0 	str	w0, [sp, #32]
     fd8:	f9005be9 	str	x9, [sp, #176]
     fdc:	39403420 	ldrb	w0, [x1, #13]
     fe0:	b9001be0 	str	w0, [sp, #24]
     fe4:	39403020 	ldrb	w0, [x1, #12]
     fe8:	b90013e0 	str	w0, [sp, #16]
     fec:	39402c20 	ldrb	w0, [x1, #11]
     ff0:	b9000be0 	str	w0, [sp, #8]
     ff4:	39402820 	ldrb	w0, [x1, #10]
     ff8:	b90003e0 	str	w0, [sp]
     ffc:	aa0d03e0 	mov	x0, x13
    1000:	b9400023 	ldr	w3, [x1]
    1004:	d28004a1 	mov	x1, #0x25                  	// #37
    1008:	97fffe2d 	bl	8bc <snprintk>
    100c:	b940afeb 	ldr	w11, [sp, #172]
kprintf():
/home/qc2335/optee/optee_os/snprintk.c:466
    1010:	2a0003e5 	mov	w5, w0
    1014:	f94053ed 	ldr	x13, [sp, #160]
/home/qc2335/optee/optee_os/snprintk.c:291
    1018:	52800002 	mov	w2, #0x0                   	// #0
    101c:	f9405be9 	ldr	x9, [sp, #176]
/home/qc2335/optee/optee_os/snprintk.c:467
    1020:	52800001 	mov	w1, #0x0                   	// #0
/home/qc2335/optee/optee_os/snprintk.c:571
    1024:	6b05005f 	cmp	w2, w5
    1028:	1a85a040 	csel	w0, w2, w5, ge  // ge = tcont
/home/qc2335/optee/optee_os/snprintk.c:572
    102c:	340021c1 	cbz	w1, 1464 <kprintf.constprop.0+0xad8>
/home/qc2335/optee/optee_os/snprintk.c:573
    1030:	11000400 	add	w0, w0, #0x1
/home/qc2335/optee/optee_os/snprintk.c:578
    1034:	6b0b001f 	cmp	w0, w11
    1038:	1a8ba004 	csel	w4, w0, w11, ge  // ge = tcont
    103c:	0b04035a 	add	w26, w26, w4
/home/qc2335/optee/optee_os/snprintk.c:581
    1040:	52808084 	mov	w4, #0x404                 	// #1028
    1044:	6a0402a4 	ands	w4, w21, w4
    1048:	540000a1 	b.ne	105c <kprintf.constprop.0+0x6d0>  // b.any
/home/qc2335/optee/optee_os/snprintk.c:582
    104c:	4b000166 	sub	w6, w11, w0
/home/qc2335/optee/optee_os/snprintk.c:584
    1050:	52800407 	mov	w7, #0x20                  	// #32
/home/qc2335/optee/optee_os/snprintk.c:583
    1054:	710000df 	cmp	w6, #0x0
    1058:	540020cc 	b.gt	1470 <kprintf.constprop.0+0xae4>
/home/qc2335/optee/optee_os/snprintk.c:588
    105c:	34002181 	cbz	w1, 148c <kprintf.constprop.0+0xb00>
/home/qc2335/optee/optee_os/snprintk.c:589
    1060:	b40000b6 	cbz	x22, 1074 <kprintf.constprop.0+0x6e8>
    1064:	f100013f 	cmp	x9, #0x0
    1068:	fa561322 	ccmp	x25, x22, #0x2, ne  // ne = any
    106c:	54000049 	b.ls	1074 <kprintf.constprop.0+0x6e8>  // b.plast
    1070:	380016c1 	strb	w1, [x22], #1
/home/qc2335/optee/optee_os/snprintk.c:596
    1074:	7110009f 	cmp	w4, #0x400
    1078:	540000a1 	b.ne	108c <kprintf.constprop.0+0x700>  // b.any
/home/qc2335/optee/optee_os/snprintk.c:597
    107c:	4b000161 	sub	w1, w11, w0
/home/qc2335/optee/optee_os/snprintk.c:599
    1080:	52800604 	mov	w4, #0x30                  	// #48
/home/qc2335/optee/optee_os/snprintk.c:598
    1084:	7100003f 	cmp	w1, #0x0
    1088:	5400226c 	b.gt	14d4 <kprintf.constprop.0+0xb48>
/home/qc2335/optee/optee_os/snprintk.c:603
    108c:	4b050042 	sub	w2, w2, w5
/home/qc2335/optee/optee_os/snprintk.c:605
    1090:	52800601 	mov	w1, #0x30                  	// #48
/home/qc2335/optee/optee_os/snprintk.c:604
    1094:	7100005f 	cmp	w2, #0x0
    1098:	540022cc 	b.gt	14f0 <kprintf.constprop.0+0xb64>
    109c:	2a0503e5 	mov	w5, w5
    10a0:	d2800001 	mov	x1, #0x0                   	// #0
/home/qc2335/optee/optee_os/snprintk.c:608
    10a4:	eb05003f 	cmp	x1, x5
    10a8:	54002321 	b.ne	150c <kprintf.constprop.0+0xb80>  // b.any
/home/qc2335/optee/optee_os/snprintk.c:611
    10ac:	3617ca75 	tbz	w21, #2, 9f8 <kprintf.constprop.0+0x6c>
/home/qc2335/optee/optee_os/snprintk.c:612
    10b0:	4b000160 	sub	w0, w11, w0
/home/qc2335/optee/optee_os/snprintk.c:614
    10b4:	52800401 	mov	w1, #0x20                  	// #32
/home/qc2335/optee/optee_os/snprintk.c:613
    10b8:	7100001f 	cmp	w0, #0x0
    10bc:	54ffc9ed 	b.le	9f8 <kprintf.constprop.0+0x6c>
/home/qc2335/optee/optee_os/snprintk.c:614
    10c0:	b40000b6 	cbz	x22, 10d4 <kprintf.constprop.0+0x748>
    10c4:	f100013f 	cmp	x9, #0x0
    10c8:	fa561322 	ccmp	x25, x22, #0x2, ne  // ne = any
    10cc:	54000049 	b.ls	10d4 <kprintf.constprop.0+0x748>  // b.plast
    10d0:	380016c1 	strb	w1, [x22], #1
    10d4:	51000400 	sub	w0, w0, #0x1
    10d8:	17fffff8 	b	10b8 <kprintf.constprop.0+0x72c>
/home/qc2335/optee/optee_os/snprintk.c:427
    10dc:	11002094 	add	w20, w4, #0x8
    10e0:	7100029f 	cmp	w20, #0x0
    10e4:	5400008d 	b.le	10f4 <kprintf.constprop.0+0x768>
    10e8:	91003c73 	add	x19, x3, #0xf
    10ec:	927df273 	and	x19, x19, #0xfffffffffffffff8
    10f0:	17ffffac 	b	fa0 <kprintf.constprop.0+0x614>
    10f4:	aa0303f3 	mov	x19, x3
    10f8:	8b24c363 	add	x3, x27, w4, sxtw
    10fc:	17ffffa9 	b	fa0 <kprintf.constprop.0+0x614>
/home/qc2335/optee/optee_os/snprintk.c:441
    1100:	37f801c4 	tbnz	w4, #31, 1138 <kprintf.constprop.0+0x7ac>
    1104:	91003c73 	add	x19, x3, #0xf
    1108:	2a0403f4 	mov	w20, w4
    110c:	927df273 	and	x19, x19, #0xfffffffffffffff8
    1110:	f9400062 	ldr	x2, [x3]
/home/qc2335/optee/optee_os/snprintk.c:443
    1114:	d00000b7 	adrp	x23, 17000 <__text_end+0x3b10>
/home/qc2335/optee/optee_os/snprintk.c:444
    1118:	321f02b5 	orr	w21, w21, #0x2
/home/qc2335/optee/optee_os/snprintk.c:443
    111c:	911b0af7 	add	x23, x23, #0x6c2
/home/qc2335/optee/optee_os/snprintk.c:445
    1120:	52800f18 	mov	w24, #0x78                  	// #120
/home/qc2335/optee/optee_os/snprintk.c:494
    1124:	52800001 	mov	w1, #0x0                   	// #0
    1128:	310004bf 	cmn	w5, #0x1
    112c:	54ffdbe0 	b.eq	ca8 <kprintf.constprop.0+0x31c>  // b.none
    1130:	52800040 	mov	w0, #0x2                   	// #2
    1134:	140000b1 	b	13f8 <kprintf.constprop.0+0xa6c>
/home/qc2335/optee/optee_os/snprintk.c:441
    1138:	11002094 	add	w20, w4, #0x8
    113c:	7100029f 	cmp	w20, #0x0
    1140:	5400008d 	b.le	1150 <kprintf.constprop.0+0x7c4>
    1144:	91003c73 	add	x19, x3, #0xf
    1148:	927df273 	and	x19, x19, #0xfffffffffffffff8
    114c:	17fffff1 	b	1110 <kprintf.constprop.0+0x784>
    1150:	aa0303f3 	mov	x19, x3
    1154:	8b24c363 	add	x3, x27, w4, sxtw
    1158:	17ffffee 	b	1110 <kprintf.constprop.0+0x784>
/home/qc2335/optee/optee_os/snprintk.c:448
    115c:	37f80364 	tbnz	w4, #31, 11c8 <kprintf.constprop.0+0x83c>
    1160:	91003c73 	add	x19, x3, #0xf
    1164:	2a0403f4 	mov	w20, w4
    1168:	927df273 	and	x19, x19, #0xfffffffffffffff8
    116c:	f940006d 	ldr	x13, [x3]
    1170:	b500006d 	cbnz	x13, 117c <kprintf.constprop.0+0x7f0>
/home/qc2335/optee/optee_os/snprintk.c:450
    1174:	d00000a3 	adrp	x3, 17000 <__text_end+0x3b10>
    1178:	9135686d 	add	x13, x3, #0xd5a
/home/qc2335/optee/optee_os/snprintk.c:451
    117c:	310004bf 	cmn	w5, #0x1
    1180:	54000360 	b.eq	11ec <kprintf.constprop.0+0x860>  // b.none
/home/qc2335/optee/optee_os/snprintk.c:457
    1184:	93407ca2 	sxtw	x2, w5
    1188:	aa0d03e0 	mov	x0, x13
    118c:	52800001 	mov	w1, #0x0                   	// #0
    1190:	f90053ed 	str	x13, [sp, #160]
    1194:	2915afe5 	stp	w5, w11, [sp, #172]
    1198:	f9005fe9 	str	x9, [sp, #184]
    119c:	94000100 	bl	159c <memchr>
/home/qc2335/optee/optee_os/snprintk.c:459
    11a0:	2955afe5 	ldp	w5, w11, [sp, #172]
    11a4:	f94053ed 	ldr	x13, [sp, #160]
    11a8:	f9405fe9 	ldr	x9, [sp, #184]
    11ac:	b4000080 	cbz	x0, 11bc <kprintf.constprop.0+0x830>
/home/qc2335/optee/optee_os/snprintk.c:460
    11b0:	cb0d0000 	sub	x0, x0, x13
    11b4:	6b0000bf 	cmp	w5, w0
    11b8:	1a80d0a5 	csel	w5, w5, w0, le
/home/qc2335/optee/optee_os/snprintk.c:291
    11bc:	52800002 	mov	w2, #0x0                   	// #0
/home/qc2335/optee/optee_os/snprintk.c:467
    11c0:	52800001 	mov	w1, #0x0                   	// #0
    11c4:	17ffff98 	b	1024 <kprintf.constprop.0+0x698>
/home/qc2335/optee/optee_os/snprintk.c:448
    11c8:	11002094 	add	w20, w4, #0x8
    11cc:	7100029f 	cmp	w20, #0x0
    11d0:	5400008d 	b.le	11e0 <kprintf.constprop.0+0x854>
    11d4:	91003c73 	add	x19, x3, #0xf
    11d8:	927df273 	and	x19, x19, #0xfffffffffffffff8
    11dc:	17ffffe4 	b	116c <kprintf.constprop.0+0x7e0>
    11e0:	aa0303f3 	mov	x19, x3
    11e4:	8b24c363 	add	x3, x27, w4, sxtw
    11e8:	17ffffe1 	b	116c <kprintf.constprop.0+0x7e0>
/home/qc2335/optee/optee_os/snprintk.c:466
    11ec:	aa0d03e0 	mov	x0, x13
    11f0:	f90053ed 	str	x13, [sp, #160]
    11f4:	b900afeb 	str	w11, [sp, #172]
    11f8:	f9005be9 	str	x9, [sp, #176]
    11fc:	940000f3 	bl	15c8 <strlen>
    1200:	17ffff83 	b	100c <kprintf.constprop.0+0x680>
/home/qc2335/optee/optee_os/snprintk.c:470
    1204:	321c02b5 	orr	w21, w21, #0x10
/home/qc2335/optee/optee_os/snprintk.c:473
    1208:	36380235 	tbz	w21, #7, 124c <kprintf.constprop.0+0x8c0>
    120c:	37f80364 	tbnz	w4, #31, 1278 <kprintf.constprop.0+0x8ec>
    1210:	91003c73 	add	x19, x3, #0xf
    1214:	2a0403f4 	mov	w20, w4
    1218:	927df273 	and	x19, x19, #0xfffffffffffffff8
    121c:	f9400062 	ldr	x2, [x3]
/home/qc2335/optee/optee_os/snprintk.c:488
    1220:	52800001 	mov	w1, #0x0                   	// #0
/home/qc2335/optee/optee_os/snprintk.c:494
    1224:	310004bf 	cmn	w5, #0x1
    1228:	54000f61 	b.ne	1414 <kprintf.constprop.0+0xa88>  // b.any
/home/qc2335/optee/optee_os/snprintk.c:502
    122c:	910397e0 	add	x0, sp, #0xe5
/home/qc2335/optee/optee_os/snprintk.c:523
    1230:	d2800144 	mov	x4, #0xa                   	// #10
    1234:	d100040d 	sub	x13, x0, #0x1
/home/qc2335/optee/optee_os/snprintk.c:522
    1238:	f100245f 	cmp	x2, #0x9
    123c:	54000f08 	b.hi	141c <kprintf.constprop.0+0xa90>  // b.pmore
/home/qc2335/optee/optee_os/snprintk.c:526
    1240:	1100c042 	add	w2, w2, #0x30
    1244:	381ff002 	sturb	w2, [x0, #-1]
/home/qc2335/optee/optee_os/snprintk.c:527
    1248:	17ffff19 	b	eac <kprintf.constprop.0+0x520>
/home/qc2335/optee/optee_os/snprintk.c:473
    124c:	3747fe15 	tbnz	w21, #8, 120c <kprintf.constprop.0+0x880>
    1250:	374ffdf5 	tbnz	w21, #9, 120c <kprintf.constprop.0+0x880>
    1254:	372ffdd5 	tbnz	w21, #5, 120c <kprintf.constprop.0+0x880>
    1258:	3727fdb5 	tbnz	w21, #4, 120c <kprintf.constprop.0+0x880>
    125c:	36300335 	tbz	w21, #6, 12c0 <kprintf.constprop.0+0x934>
    1260:	37f801e4 	tbnz	w4, #31, 129c <kprintf.constprop.0+0x910>
    1264:	91002c73 	add	x19, x3, #0xb
    1268:	2a0403f4 	mov	w20, w4
    126c:	927df273 	and	x19, x19, #0xfffffffffffffff8
    1270:	79400062 	ldrh	w2, [x3]
    1274:	17ffffeb 	b	1220 <kprintf.constprop.0+0x894>
    1278:	11002094 	add	w20, w4, #0x8
    127c:	7100029f 	cmp	w20, #0x0
    1280:	5400008d 	b.le	1290 <kprintf.constprop.0+0x904>
    1284:	91003c73 	add	x19, x3, #0xf
    1288:	927df273 	and	x19, x19, #0xfffffffffffffff8
    128c:	17ffffe4 	b	121c <kprintf.constprop.0+0x890>
    1290:	aa0303f3 	mov	x19, x3
    1294:	8b24c363 	add	x3, x27, w4, sxtw
    1298:	17ffffe1 	b	121c <kprintf.constprop.0+0x890>
    129c:	11002094 	add	w20, w4, #0x8
    12a0:	7100029f 	cmp	w20, #0x0
    12a4:	5400008d 	b.le	12b4 <kprintf.constprop.0+0x928>
    12a8:	91002c73 	add	x19, x3, #0xb
    12ac:	927df273 	and	x19, x19, #0xfffffffffffffff8
    12b0:	17fffff0 	b	1270 <kprintf.constprop.0+0x8e4>
    12b4:	aa0303f3 	mov	x19, x3
    12b8:	8b24c363 	add	x3, x27, w4, sxtw
    12bc:	17ffffed 	b	1270 <kprintf.constprop.0+0x8e4>
    12c0:	37f800c4 	tbnz	w4, #31, 12d8 <kprintf.constprop.0+0x94c>
    12c4:	91002c73 	add	x19, x3, #0xb
    12c8:	2a0403f4 	mov	w20, w4
    12cc:	927df273 	and	x19, x19, #0xfffffffffffffff8
    12d0:	b9400062 	ldr	w2, [x3]
    12d4:	17ffffd3 	b	1220 <kprintf.constprop.0+0x894>
    12d8:	11002094 	add	w20, w4, #0x8
    12dc:	7100029f 	cmp	w20, #0x0
    12e0:	5400008d 	b.le	12f0 <kprintf.constprop.0+0x964>
    12e4:	91002c73 	add	x19, x3, #0xb
    12e8:	927df273 	and	x19, x19, #0xfffffffffffffff8
    12ec:	17fffff9 	b	12d0 <kprintf.constprop.0+0x944>
    12f0:	aa0303f3 	mov	x19, x3
    12f4:	8b24c363 	add	x3, x27, w4, sxtw
    12f8:	17fffff6 	b	12d0 <kprintf.constprop.0+0x944>
/home/qc2335/optee/optee_os/snprintk.c:297
    12fc:	d00000b7 	adrp	x23, 17000 <__text_end+0x3b10>
    1300:	911b0af7 	add	x23, x23, #0x6c2
    1304:	910046f7 	add	x23, x23, #0x11
/home/qc2335/optee/optee_os/snprintk.c:481
    1308:	363801f5 	tbz	w21, #7, 1344 <kprintf.constprop.0+0x9b8>
    130c:	37f80324 	tbnz	w4, #31, 1370 <kprintf.constprop.0+0x9e4>
    1310:	91003c73 	add	x19, x3, #0xf
    1314:	2a0403f4 	mov	w20, w4
    1318:	927df273 	and	x19, x19, #0xfffffffffffffff8
    131c:	f9400062 	ldr	x2, [x3]
/home/qc2335/optee/optee_os/snprintk.c:484
    1320:	3607f035 	tbz	w21, #0, 1124 <kprintf.constprop.0+0x798>
    1324:	b4fff002 	cbz	x2, 1124 <kprintf.constprop.0+0x798>
/home/qc2335/optee/optee_os/snprintk.c:485
    1328:	321f02b5 	orr	w21, w21, #0x2
/home/qc2335/optee/optee_os/snprintk.c:482
    132c:	52800040 	mov	w0, #0x2                   	// #2
/home/qc2335/optee/optee_os/snprintk.c:488
    1330:	52800001 	mov	w1, #0x0                   	// #0
    1334:	17fffe57 	b	c90 <kprintf.constprop.0+0x304>
/home/qc2335/optee/optee_os/snprintk.c:480
    1338:	d00000b7 	adrp	x23, 17000 <__text_end+0x3b10>
    133c:	911b0af7 	add	x23, x23, #0x6c2
    1340:	17fffff2 	b	1308 <kprintf.constprop.0+0x97c>
/home/qc2335/optee/optee_os/snprintk.c:481
    1344:	3747fe55 	tbnz	w21, #8, 130c <kprintf.constprop.0+0x980>
    1348:	374ffe35 	tbnz	w21, #9, 130c <kprintf.constprop.0+0x980>
    134c:	372ffe15 	tbnz	w21, #5, 130c <kprintf.constprop.0+0x980>
    1350:	3727fdf5 	tbnz	w21, #4, 130c <kprintf.constprop.0+0x980>
    1354:	36300335 	tbz	w21, #6, 13b8 <kprintf.constprop.0+0xa2c>
    1358:	37f801e4 	tbnz	w4, #31, 1394 <kprintf.constprop.0+0xa08>
    135c:	91002c73 	add	x19, x3, #0xb
    1360:	2a0403f4 	mov	w20, w4
    1364:	927df273 	and	x19, x19, #0xfffffffffffffff8
    1368:	79400062 	ldrh	w2, [x3]
    136c:	17ffffed 	b	1320 <kprintf.constprop.0+0x994>
    1370:	11002094 	add	w20, w4, #0x8
    1374:	7100029f 	cmp	w20, #0x0
    1378:	5400008d 	b.le	1388 <kprintf.constprop.0+0x9fc>
    137c:	91003c73 	add	x19, x3, #0xf
    1380:	927df273 	and	x19, x19, #0xfffffffffffffff8
    1384:	17ffffe6 	b	131c <kprintf.constprop.0+0x990>
    1388:	aa0303f3 	mov	x19, x3
    138c:	8b24c363 	add	x3, x27, w4, sxtw
    1390:	17ffffe3 	b	131c <kprintf.constprop.0+0x990>
    1394:	11002094 	add	w20, w4, #0x8
    1398:	7100029f 	cmp	w20, #0x0
    139c:	5400008d 	b.le	13ac <kprintf.constprop.0+0xa20>
    13a0:	91002c73 	add	x19, x3, #0xb
    13a4:	927df273 	and	x19, x19, #0xfffffffffffffff8
    13a8:	17fffff0 	b	1368 <kprintf.constprop.0+0x9dc>
    13ac:	aa0303f3 	mov	x19, x3
    13b0:	8b24c363 	add	x3, x27, w4, sxtw
    13b4:	17ffffed 	b	1368 <kprintf.constprop.0+0x9dc>
    13b8:	37f800c4 	tbnz	w4, #31, 13d0 <kprintf.constprop.0+0xa44>
    13bc:	91002c73 	add	x19, x3, #0xb
    13c0:	2a0403f4 	mov	w20, w4
    13c4:	927df273 	and	x19, x19, #0xfffffffffffffff8
    13c8:	b9400062 	ldr	w2, [x3]
    13cc:	17ffffd5 	b	1320 <kprintf.constprop.0+0x994>
    13d0:	11002094 	add	w20, w4, #0x8
    13d4:	7100029f 	cmp	w20, #0x0
    13d8:	5400008d 	b.le	13e8 <kprintf.constprop.0+0xa5c>
    13dc:	91002c73 	add	x19, x3, #0xb
    13e0:	927df273 	and	x19, x19, #0xfffffffffffffff8
    13e4:	17fffff9 	b	13c8 <kprintf.constprop.0+0xa3c>
    13e8:	aa0303f3 	mov	x19, x3
    13ec:	8b24c363 	add	x3, x27, w4, sxtw
    13f0:	17fffff6 	b	13c8 <kprintf.constprop.0+0xa3c>
/home/qc2335/optee/optee_os/snprintk.c:494
    13f4:	52800000 	mov	w0, #0x0                   	// #0
/home/qc2335/optee/optee_os/snprintk.c:503
    13f8:	f100005f 	cmp	x2, #0x0
/home/qc2335/optee/optee_os/snprintk.c:495
    13fc:	12157ab5 	and	w21, w21, #0xfffffbff
/home/qc2335/optee/optee_os/snprintk.c:503
    1400:	7a4008a0 	ccmp	w5, #0x0, #0x0, eq  // eq = none
    1404:	54ffc4a1 	b.ne	c98 <kprintf.constprop.0+0x30c>  // b.any
/home/qc2335/optee/optee_os/snprintk.c:502
    1408:	910397ed 	add	x13, sp, #0xe5
    140c:	52800005 	mov	w5, #0x0                   	// #0
    1410:	17fffea7 	b	eac <kprintf.constprop.0+0x520>
/home/qc2335/optee/optee_os/snprintk.c:494
    1414:	52800020 	mov	w0, #0x1                   	// #1
    1418:	17fffff8 	b	13f8 <kprintf.constprop.0+0xa6c>
/home/qc2335/optee/optee_os/snprintk.c:523
    141c:	9ac40846 	udiv	x6, x2, x4
    1420:	9b0488c2 	msub	x2, x6, x4, x2
    1424:	1100c042 	add	w2, w2, #0x30
    1428:	381ff002 	sturb	w2, [x0, #-1]
/home/qc2335/optee/optee_os/snprintk.c:524
    142c:	aa0603e2 	mov	x2, x6
    1430:	aa0d03e0 	mov	x0, x13
    1434:	17ffff80 	b	1234 <kprintf.constprop.0+0x8a8>
/home/qc2335/optee/optee_os/snprintk.c:547
    1438:	35ffb418 	cbnz	w24, ab8 <kprintf.constprop.0+0x12c>
/home/qc2335/optee/optee_os/snprintk.c:619
    143c:	b4000049 	cbz	x9, 1444 <kprintf.constprop.0+0xab8>
/home/qc2335/optee/optee_os/snprintk.c:620
    1440:	f9000136 	str	x22, [x9]
/home/qc2335/optee/optee_os/snprintk.c:622
    1444:	b00000c0 	adrp	x0, 1a000 <_DYNAMIC>
    1448:	f9409800 	ldr	x0, [x0, #304]
    144c:	f94077e2 	ldr	x2, [sp, #232]
    1450:	f9400001 	ldr	x1, [x0]
    1454:	eb010042 	subs	x2, x2, x1
    1458:	d2800001 	mov	x1, #0x0                   	// #0
    145c:	54000680 	b.eq	152c <kprintf.constprop.0+0xba0>  // b.none
    1460:	97fffbf8 	bl	440 <__stack_chk_fail>
/home/qc2335/optee/optee_os/snprintk.c:574
    1464:	360fde95 	tbz	w21, #1, 1034 <kprintf.constprop.0+0x6a8>
/home/qc2335/optee/optee_os/snprintk.c:575
    1468:	11000800 	add	w0, w0, #0x2
    146c:	17fffef2 	b	1034 <kprintf.constprop.0+0x6a8>
/home/qc2335/optee/optee_os/snprintk.c:584
    1470:	b40000b6 	cbz	x22, 1484 <kprintf.constprop.0+0xaf8>
    1474:	f100013f 	cmp	x9, #0x0
    1478:	fa561322 	ccmp	x25, x22, #0x2, ne  // ne = any
    147c:	54000049 	b.ls	1484 <kprintf.constprop.0+0xaf8>  // b.plast
    1480:	380016c7 	strb	w7, [x22], #1
    1484:	510004c6 	sub	w6, w6, #0x1
    1488:	17fffef3 	b	1054 <kprintf.constprop.0+0x6c8>
/home/qc2335/optee/optee_os/snprintk.c:590
    148c:	360fdf55 	tbz	w21, #1, 1074 <kprintf.constprop.0+0x6e8>
/home/qc2335/optee/optee_os/snprintk.c:591
    1490:	b4ffdf36 	cbz	x22, 1074 <kprintf.constprop.0+0x6e8>
    1494:	f100013f 	cmp	x9, #0x0
    1498:	1a9f17e6 	cset	w6, eq  // eq = none
    149c:	710000df 	cmp	w6, #0x0
    14a0:	fa560322 	ccmp	x25, x22, #0x2, eq  // eq = none
    14a4:	54ffde89 	b.ls	1074 <kprintf.constprop.0+0x6e8>  // b.plast
    14a8:	aa1603e1 	mov	x1, x22
    14ac:	52800607 	mov	w7, #0x30                  	// #48
/home/qc2335/optee/optee_os/snprintk.c:592
    14b0:	710000df 	cmp	w6, #0x0
/home/qc2335/optee/optee_os/snprintk.c:591
    14b4:	38001427 	strb	w7, [x1], #1
/home/qc2335/optee/optee_os/snprintk.c:592
    14b8:	fa410322 	ccmp	x25, x1, #0x2, eq  // eq = none
    14bc:	54000089 	b.ls	14cc <kprintf.constprop.0+0xb40>  // b.plast
    14c0:	91000ad6 	add	x22, x22, #0x2
    14c4:	381ff2d8 	sturb	w24, [x22, #-1]
    14c8:	17fffeeb 	b	1074 <kprintf.constprop.0+0x6e8>
    14cc:	aa0103f6 	mov	x22, x1
    14d0:	17fffee9 	b	1074 <kprintf.constprop.0+0x6e8>
/home/qc2335/optee/optee_os/snprintk.c:599
    14d4:	b40000b6 	cbz	x22, 14e8 <kprintf.constprop.0+0xb5c>
    14d8:	f100013f 	cmp	x9, #0x0
    14dc:	fa561322 	ccmp	x25, x22, #0x2, ne  // ne = any
    14e0:	54000049 	b.ls	14e8 <kprintf.constprop.0+0xb5c>  // b.plast
    14e4:	380016c4 	strb	w4, [x22], #1
    14e8:	51000421 	sub	w1, w1, #0x1
    14ec:	17fffee6 	b	1084 <kprintf.constprop.0+0x6f8>
/home/qc2335/optee/optee_os/snprintk.c:605
    14f0:	b40000b6 	cbz	x22, 1504 <kprintf.constprop.0+0xb78>
    14f4:	f100013f 	cmp	x9, #0x0
    14f8:	fa561322 	ccmp	x25, x22, #0x2, ne  // ne = any
    14fc:	54000049 	b.ls	1504 <kprintf.constprop.0+0xb78>  // b.plast
    1500:	380016c1 	strb	w1, [x22], #1
    1504:	51000442 	sub	w2, w2, #0x1
    1508:	17fffee3 	b	1094 <kprintf.constprop.0+0x708>
/home/qc2335/optee/optee_os/snprintk.c:609
    150c:	b40000d6 	cbz	x22, 1524 <kprintf.constprop.0+0xb98>
    1510:	f100013f 	cmp	x9, #0x0
    1514:	fa561322 	ccmp	x25, x22, #0x2, ne  // ne = any
    1518:	54000069 	b.ls	1524 <kprintf.constprop.0+0xb98>  // b.plast
    151c:	386169a2 	ldrb	w2, [x13, x1]
    1520:	380016c2 	strb	w2, [x22], #1
/home/qc2335/optee/optee_os/snprintk.c:608
    1524:	91000421 	add	x1, x1, #0x1
    1528:	17fffedf 	b	10a4 <kprintf.constprop.0+0x718>
/home/qc2335/optee/optee_os/snprintk.c:622
    152c:	2a1a03e0 	mov	w0, w26
    1530:	a9437bfd 	ldp	x29, x30, [sp, #48]
    1534:	a94453f3 	ldp	x19, x20, [sp, #64]
    1538:	a9455bf5 	ldp	x21, x22, [sp, #80]
    153c:	a94663f7 	ldp	x23, x24, [sp, #96]
    1540:	a9476bf9 	ldp	x25, x26, [sp, #112]
    1544:	a94873fb 	ldp	x27, x28, [sp, #128]
    1548:	9103c3ff 	add	sp, sp, #0xf0
    154c:	d65f03c0 	ret

0000000000001550 <__vsprintf>:
__vsprintf():
/home/qc2335/optee/optee_os/snprintk.c:155
    1550:	a9bc7bfd 	stp	x29, x30, [sp, #-64]!
/home/qc2335/optee/optee_os/snprintk.c:156
    1554:	910083e3 	add	x3, sp, #0x20
/home/qc2335/optee/optee_os/snprintk.c:155
    1558:	910003fd 	mov	x29, sp
    155c:	a90153f3 	stp	x19, x20, [sp, #16]
    1560:	aa0003f4 	mov	x20, x0
    1564:	aa0103f3 	mov	x19, x1
/home/qc2335/optee/optee_os/snprintk.c:156
    1568:	aa0303e0 	mov	x0, x3
/home/qc2335/optee/optee_os/snprintk.c:155
    156c:	aa0203e1 	mov	x1, x2
/home/qc2335/optee/optee_os/snprintk.c:156
    1570:	d2800402 	mov	x2, #0x20                  	// #32
    1574:	97fffaa3 	bl	0 <memcpy>
    1578:	aa1403e2 	mov	x2, x20
    157c:	aa0003e3 	mov	x3, x0
    1580:	52800004 	mov	w4, #0x0                   	// #0
    1584:	aa1303e0 	mov	x0, x19
    1588:	d2800001 	mov	x1, #0x0                   	// #0
    158c:	97fffd00 	bl	98c <kprintf.constprop.0>
/home/qc2335/optee/optee_os/snprintk.c:157
    1590:	a94153f3 	ldp	x19, x20, [sp, #16]
    1594:	a8c47bfd 	ldp	x29, x30, [sp], #64
    1598:	d65f03c0 	ret

000000000000159c <memchr>:
memchr():
/home/qc2335/optee/optee_os/memchr.c:109
    159c:	12001c21 	and	w1, w1, #0xff
/home/qc2335/optee/optee_os/memchr.c:153
    15a0:	8b020002 	add	x2, x0, x2
    15a4:	eb02001f 	cmp	x0, x2
    15a8:	54000061 	b.ne	15b4 <memchr+0x18>  // b.any
/home/qc2335/optee/optee_os/memchr.c:159
    15ac:	d2800000 	mov	x0, #0x0                   	// #0
/home/qc2335/optee/optee_os/memchr.c:160
    15b0:	d65f03c0 	ret
/home/qc2335/optee/optee_os/memchr.c:154
    15b4:	39400003 	ldrb	w3, [x0]
    15b8:	6b01007f 	cmp	w3, w1
    15bc:	54ffffa0 	b.eq	15b0 <memchr+0x14>  // b.none
/home/qc2335/optee/optee_os/memchr.c:156
    15c0:	91000400 	add	x0, x0, #0x1
    15c4:	17fffff8 	b	15a4 <memchr+0x8>

00000000000015c8 <strlen>:
strlen():
/home/qc2335/optee/optee_os/strlen.c:117
    15c8:	aa0003e1 	mov	x1, x0
    15cc:	39400022 	ldrb	w2, [x1]
    15d0:	35000062 	cbnz	w2, 15dc <strlen+0x14>
/home/qc2335/optee/optee_os/strlen.c:120
    15d4:	cb000020 	sub	x0, x1, x0
    15d8:	d65f03c0 	ret
/home/qc2335/optee/optee_os/strlen.c:118
    15dc:	91000421 	add	x1, x1, #0x1
    15e0:	17fffffb 	b	15cc <strlen+0x4>

00000000000015e4 <trace_ext_puts>:
trace_ext_puts():
/home/qc2335/optee/optee_os/trace_ext.c:22
    15e4:	a9be7bfd 	stp	x29, x30, [sp, #-32]!
    15e8:	910003fd 	mov	x29, sp
    15ec:	f9000bf3 	str	x19, [sp, #16]
    15f0:	aa0003f3 	mov	x19, x0
/home/qc2335/optee/optee_os/trace_ext.c:26
    15f4:	97fffff5 	bl	15c8 <strlen>
    15f8:	aa0003e1 	mov	x1, x0
    15fc:	aa1303e0 	mov	x0, x19
/home/qc2335/optee/optee_os/trace_ext.c:28
    1600:	f9400bf3 	ldr	x19, [sp, #16]
    1604:	a8c27bfd 	ldp	x29, x30, [sp], #32
/home/qc2335/optee/optee_os/trace_ext.c:26
    1608:	140009da 	b	3d70 <_utee_log>

000000000000160c <trace_ext_get_thread_id>:
trace_ext_get_thread_id():
/home/qc2335/optee/optee_os/trace_ext.c:33
    160c:	12800000 	mov	w0, #0xffffffff            	// #-1
    1610:	d65f03c0 	ret

0000000000001614 <printf>:
printf():
/home/qc2335/optee/optee_os/trace_ext.c:41
    1614:	d108c3ff 	sub	sp, sp, #0x230
    1618:	a9007bfd 	stp	x29, x30, [sp]
    161c:	910003fd 	mov	x29, sp
    1620:	a90153f3 	stp	x19, x20, [sp, #16]
    1624:	aa0003f3 	mov	x19, x0
    1628:	910823e0 	add	x0, sp, #0x208
    162c:	a91f8be1 	stp	x1, x2, [sp, #504]
    1630:	b00000c1 	adrp	x1, 1a000 <_DYNAMIC>
    1634:	3d805fe0 	str	q0, [sp, #368]
    1638:	3d8063e1 	str	q1, [sp, #384]
    163c:	3d8067e2 	str	q2, [sp, #400]
    1640:	3d806be3 	str	q3, [sp, #416]
    1644:	3d806fe4 	str	q4, [sp, #432]
    1648:	3d8073e5 	str	q5, [sp, #448]
    164c:	3d8077e6 	str	q6, [sp, #464]
    1650:	3d807be7 	str	q7, [sp, #480]
    1654:	f9409821 	ldr	x1, [x1, #304]
    1658:	a9001003 	stp	x3, x4, [x0]
    165c:	a9011805 	stp	x5, x6, [x0, #16]
    1660:	f90117e7 	str	x7, [sp, #552]
    1664:	f9400020 	ldr	x0, [x1]
    1668:	f900b7e0 	str	x0, [sp, #360]
    166c:	d2800000 	mov	x0, #0x0                   	// #0
/home/qc2335/optee/optee_os/trace_ext.c:46
    1670:	97fffb87 	bl	48c <trace_get_level>
    1674:	7100001f 	cmp	w0, #0x0
    1678:	5400040d 	b.le	16f8 <printf+0xe4>
/home/qc2335/optee/optee_os/trace_ext.c:49
    167c:	9108c3e0 	add	x0, sp, #0x230
/home/qc2335/optee/optee_os/trace_ext.c:50
    1680:	910083e3 	add	x3, sp, #0x20
/home/qc2335/optee/optee_os/trace_ext.c:49
    1684:	a90483e0 	stp	x0, x0, [sp, #72]
    1688:	9107c3e0 	add	x0, sp, #0x1f0
/home/qc2335/optee/optee_os/trace_ext.c:50
    168c:	910123e1 	add	x1, sp, #0x48
/home/qc2335/optee/optee_os/trace_ext.c:49
    1690:	f9002fe0 	str	x0, [sp, #88]
    1694:	128006e0 	mov	w0, #0xffffffc8            	// #-56
    1698:	b90063e0 	str	w0, [sp, #96]
    169c:	12800fe0 	mov	w0, #0xffffff80            	// #-128
/home/qc2335/optee/optee_os/trace_ext.c:50
    16a0:	d2800402 	mov	x2, #0x20                  	// #32
    16a4:	9101a3f4 	add	x20, sp, #0x68
/home/qc2335/optee/optee_os/trace_ext.c:49
    16a8:	b90067e0 	str	w0, [sp, #100]
/home/qc2335/optee/optee_os/trace_ext.c:50
    16ac:	aa0303e0 	mov	x0, x3
    16b0:	97fffa54 	bl	0 <memcpy>
    16b4:	aa0003e3 	mov	x3, x0
    16b8:	aa1303e2 	mov	x2, x19
    16bc:	aa1403e0 	mov	x0, x20
    16c0:	d2802001 	mov	x1, #0x100                 	// #256
    16c4:	94003587 	bl	ece0 <vsnprintf>
    16c8:	2a0003f3 	mov	w19, w0
/home/qc2335/optee/optee_os/trace_ext.c:53
    16cc:	37f80060 	tbnz	w0, #31, 16d8 <printf+0xc4>
/home/qc2335/optee/optee_os/trace_ext.c:56
    16d0:	aa1403e0 	mov	x0, x20
    16d4:	97ffffc4 	bl	15e4 <trace_ext_puts>
/home/qc2335/optee/optee_os/trace_ext.c:59
    16d8:	b00000c1 	adrp	x1, 1a000 <_DYNAMIC>
    16dc:	f9409821 	ldr	x1, [x1, #304]
    16e0:	f940b7e0 	ldr	x0, [sp, #360]
    16e4:	f9400022 	ldr	x2, [x1]
    16e8:	eb020000 	subs	x0, x0, x2
    16ec:	d2800002 	mov	x2, #0x0                   	// #0
    16f0:	54000080 	b.eq	1700 <printf+0xec>  // b.none
    16f4:	97fffb53 	bl	440 <__stack_chk_fail>
/home/qc2335/optee/optee_os/trace_ext.c:47
    16f8:	52800013 	mov	w19, #0x0                   	// #0
    16fc:	17fffff7 	b	16d8 <printf+0xc4>
/home/qc2335/optee/optee_os/trace_ext.c:59
    1700:	2a1303e0 	mov	w0, w19
    1704:	a9407bfd 	ldp	x29, x30, [sp]
    1708:	a94153f3 	ldp	x19, x20, [sp, #16]
    170c:	9108c3ff 	add	sp, sp, #0x230
    1710:	d65f03c0 	ret

0000000000001714 <puts>:
puts():
/home/qc2335/optee/optee_os/trace_ext.c:62
    1714:	a9be7bfd 	stp	x29, x30, [sp, #-32]!
    1718:	910003fd 	mov	x29, sp
    171c:	f9000bf3 	str	x19, [sp, #16]
    1720:	aa0003f3 	mov	x19, x0
/home/qc2335/optee/optee_os/trace_ext.c:63
    1724:	97fffb5a 	bl	48c <trace_get_level>
    1728:	7100001f 	cmp	w0, #0x0
    172c:	540000cd 	b.le	1744 <puts+0x30>
/home/qc2335/optee/optee_os/trace_ext.c:64
    1730:	aa1303e0 	mov	x0, x19
    1734:	97ffffac 	bl	15e4 <trace_ext_puts>
/home/qc2335/optee/optee_os/trace_ext.c:65
    1738:	d00000a0 	adrp	x0, 17000 <__text_end+0x3b10>
    173c:	912c5400 	add	x0, x0, #0xb15
    1740:	97ffffa9 	bl	15e4 <trace_ext_puts>
/home/qc2335/optee/optee_os/trace_ext.c:68
    1744:	52800020 	mov	w0, #0x1                   	// #1
    1748:	f9400bf3 	ldr	x19, [sp, #16]
    174c:	a8c27bfd 	ldp	x29, x30, [sp], #32
    1750:	d65f03c0 	ret

0000000000001754 <putchar>:
putchar():
/home/qc2335/optee/optee_os/trace_ext.c:71
    1754:	a9bd7bfd 	stp	x29, x30, [sp, #-48]!
    1758:	b00000c1 	adrp	x1, 1a000 <_DYNAMIC>
    175c:	910003fd 	mov	x29, sp
    1760:	f9409821 	ldr	x1, [x1, #304]
    1764:	f9000bf3 	str	x19, [sp, #16]
    1768:	2a0003f3 	mov	w19, w0
    176c:	f9400020 	ldr	x0, [x1]
    1770:	f90017e0 	str	x0, [sp, #40]
    1774:	d2800000 	mov	x0, #0x0                   	// #0
/home/qc2335/optee/optee_os/trace_ext.c:72
    1778:	390083f3 	strb	w19, [sp, #32]
    177c:	390087ff 	strb	wzr, [sp, #33]
/home/qc2335/optee/optee_os/trace_ext.c:74
    1780:	97fffb43 	bl	48c <trace_get_level>
    1784:	7100001f 	cmp	w0, #0x0
    1788:	5400006d 	b.le	1794 <putchar+0x40>
/home/qc2335/optee/optee_os/trace_ext.c:75
    178c:	910083e0 	add	x0, sp, #0x20
    1790:	97ffff95 	bl	15e4 <trace_ext_puts>
/home/qc2335/optee/optee_os/trace_ext.c:82
    1794:	b00000c1 	adrp	x1, 1a000 <_DYNAMIC>
/home/qc2335/optee/optee_os/trace_ext.c:81
    1798:	12001e60 	and	w0, w19, #0xff
/home/qc2335/optee/optee_os/trace_ext.c:82
    179c:	f9409821 	ldr	x1, [x1, #304]
    17a0:	f94017e3 	ldr	x3, [sp, #40]
    17a4:	f9400022 	ldr	x2, [x1]
    17a8:	eb020063 	subs	x3, x3, x2
    17ac:	d2800002 	mov	x2, #0x0                   	// #0
    17b0:	54000040 	b.eq	17b8 <putchar+0x64>  // b.none
    17b4:	97fffb23 	bl	440 <__stack_chk_fail>
    17b8:	f9400bf3 	ldr	x19, [sp, #16]
    17bc:	a8c37bfd 	ldp	x29, x30, [sp], #48
    17c0:	d65f03c0 	ret

00000000000017c4 <__utee_from_attr>:
__utee_from_attr():
/home/qc2335/optee/optee_os/tee_api_objects.c:19
    17c4:	2a0203e2 	mov	w2, w2
    17c8:	d2800003 	mov	x3, #0x0                   	// #0
/home/qc2335/optee/optee_os/tee_api_objects.c:19 (discriminator 1)
    17cc:	eb03005f 	cmp	x2, x3
    17d0:	54000048 	b.hi	17d8 <__utee_from_attr+0x14>  // b.pmore
/home/qc2335/optee/optee_os/tee_api_objects.c:29
    17d4:	d65f03c0 	ret
/home/qc2335/optee/optee_os/tee_api_objects.c:20
    17d8:	b9400024 	ldr	w4, [x1]
    17dc:	b9001004 	str	w4, [x0, #16]
/home/qc2335/optee/optee_os/tee_api_objects.c:21
    17e0:	36e80124 	tbz	w4, #29, 1804 <__utee_from_attr+0x40>
/home/qc2335/optee/optee_os/tee_api_objects.c:22
    17e4:	b9400824 	ldr	w4, [x1, #8]
    17e8:	f9000004 	str	x4, [x0]
/home/qc2335/optee/optee_os/tee_api_objects.c:23
    17ec:	b9400c24 	ldr	w4, [x1, #12]
/home/qc2335/optee/optee_os/tee_api_objects.c:19 (discriminator 2)
    17f0:	91000463 	add	x3, x3, #0x1
    17f4:	91006021 	add	x1, x1, #0x18
    17f8:	91006000 	add	x0, x0, #0x18
/home/qc2335/optee/optee_os/tee_api_objects.c:23 (discriminator 2)
    17fc:	f81f0004 	stur	x4, [x0, #-16]
/home/qc2335/optee/optee_os/tee_api_objects.c:19 (discriminator 2)
    1800:	17fffff3 	b	17cc <__utee_from_attr+0x8>
/home/qc2335/optee/optee_os/tee_api_objects.c:25
    1804:	f9400424 	ldr	x4, [x1, #8]
    1808:	f9000004 	str	x4, [x0]
/home/qc2335/optee/optee_os/tee_api_objects.c:26
    180c:	f9400824 	ldr	x4, [x1, #16]
    1810:	17fffff8 	b	17f0 <__utee_from_attr+0x2c>

0000000000001814 <__utee_from_gp11_attr>:
__utee_from_gp11_attr():
/home/qc2335/optee/optee_os/tee_api_objects.c:37
    1814:	2a0203e2 	mov	w2, w2
    1818:	d2800003 	mov	x3, #0x0                   	// #0
/home/qc2335/optee/optee_os/tee_api_objects.c:37 (discriminator 1)
    181c:	eb03005f 	cmp	x2, x3
    1820:	54000048 	b.hi	1828 <__utee_from_gp11_attr+0x14>  // b.pmore
/home/qc2335/optee/optee_os/tee_api_objects.c:47
    1824:	d65f03c0 	ret
/home/qc2335/optee/optee_os/tee_api_objects.c:38
    1828:	b9400024 	ldr	w4, [x1]
    182c:	b9001004 	str	w4, [x0, #16]
/home/qc2335/optee/optee_os/tee_api_objects.c:39
    1830:	36e80124 	tbz	w4, #29, 1854 <__utee_from_gp11_attr+0x40>
/home/qc2335/optee/optee_os/tee_api_objects.c:40
    1834:	b9400824 	ldr	w4, [x1, #8]
    1838:	f9000004 	str	x4, [x0]
/home/qc2335/optee/optee_os/tee_api_objects.c:41
    183c:	b9400c24 	ldr	w4, [x1, #12]
/home/qc2335/optee/optee_os/tee_api_objects.c:37 (discriminator 2)
    1840:	91000463 	add	x3, x3, #0x1
    1844:	91006021 	add	x1, x1, #0x18
    1848:	91006000 	add	x0, x0, #0x18
/home/qc2335/optee/optee_os/tee_api_objects.c:41 (discriminator 2)
    184c:	f81f0004 	stur	x4, [x0, #-16]
/home/qc2335/optee/optee_os/tee_api_objects.c:37 (discriminator 2)
    1850:	17fffff3 	b	181c <__utee_from_gp11_attr+0x8>
/home/qc2335/optee/optee_os/tee_api_objects.c:43
    1854:	f9400424 	ldr	x4, [x1, #8]
    1858:	f9000004 	str	x4, [x0]
/home/qc2335/optee/optee_os/tee_api_objects.c:44
    185c:	b9401024 	ldr	w4, [x1, #16]
    1860:	17fffff8 	b	1840 <__utee_from_gp11_attr+0x2c>

0000000000001864 <TEE_GetObjectInfo>:
TEE_GetObjectInfo():
/home/qc2335/optee/optee_os/tee_api_objects.c:57
    1864:	a9bb7bfd 	stp	x29, x30, [sp, #-80]!
    1868:	910003fd 	mov	x29, sp
    186c:	f9000bf3 	str	x19, [sp, #16]
    1870:	aa0103f3 	mov	x19, x1
    1874:	b00000c1 	adrp	x1, 1a000 <_DYNAMIC>
    1878:	f9409821 	ldr	x1, [x1, #304]
    187c:	f9400022 	ldr	x2, [x1]
    1880:	f90027e2 	str	x2, [sp, #72]
    1884:	d2800002 	mov	x2, #0x0                   	// #0
/home/qc2335/optee/optee_os/tee_api_objects.c:61
    1888:	9100a3e1 	add	x1, sp, #0x28
/home/qc2335/optee/optee_os/tee_api_objects.c:58
    188c:	a902ffff 	stp	xzr, xzr, [sp, #40]
    1890:	f9001fff 	str	xzr, [sp, #56]
    1894:	b90043ff 	str	wzr, [sp, #64]
/home/qc2335/optee/optee_os/tee_api_objects.c:61
    1898:	9400097b 	bl	3e84 <_utee_cryp_obj_get_info>
/home/qc2335/optee/optee_os/tee_api_objects.c:63
    189c:	34000040 	cbz	w0, 18a4 <TEE_GetObjectInfo+0x40>
/home/qc2335/optee/optee_os/tee_api_objects.c:64
    18a0:	94000661 	bl	3224 <TEE_Panic>
/home/qc2335/optee/optee_os/tee_api_objects.c:66
    18a4:	b9402be1 	ldr	w1, [sp, #40]
    18a8:	528017c0 	mov	w0, #0xbe                  	// #190
    18ac:	72b40000 	movk	w0, #0xa000, lsl #16
    18b0:	6b00003f 	cmp	w1, w0
    18b4:	540001c1 	b.ne	18ec <TEE_GetObjectInfo+0x88>  // b.any
/home/qc2335/optee/optee_os/tee_api_objects.c:71
    18b8:	52800000 	mov	w0, #0x0                   	// #0
/home/qc2335/optee/optee_os/tee_api_objects.c:67
    18bc:	b900067f 	str	wzr, [x19, #4]
/home/qc2335/optee/optee_os/tee_api_objects.c:70
    18c0:	a900fe7f 	stp	xzr, xzr, [x19, #8]
/home/qc2335/optee/optee_os/tee_api_objects.c:71
    18c4:	f9000e7f 	str	xzr, [x19, #24]
/home/qc2335/optee/optee_os/tee_api_objects.c:82
    18c8:	b00000c1 	adrp	x1, 1a000 <_DYNAMIC>
/home/qc2335/optee/optee_os/tee_api_objects.c:72
    18cc:	b9002260 	str	w0, [x19, #32]
/home/qc2335/optee/optee_os/tee_api_objects.c:82
    18d0:	f9409821 	ldr	x1, [x1, #304]
    18d4:	f94027e0 	ldr	x0, [sp, #72]
    18d8:	f9400022 	ldr	x2, [x1]
    18dc:	eb020000 	subs	x0, x0, x2
    18e0:	d2800002 	mov	x2, #0x0                   	// #0
    18e4:	54000180 	b.eq	1914 <TEE_GetObjectInfo+0xb0>  // b.none
    18e8:	97fffad6 	bl	440 <__stack_chk_fail>
/home/qc2335/optee/optee_os/tee_api_objects.c:74
    18ec:	f94017e0 	ldr	x0, [sp, #40]
    18f0:	f9000260 	str	x0, [x19]
/home/qc2335/optee/optee_os/tee_api_objects.c:76
    18f4:	f9401be0 	ldr	x0, [sp, #48]
    18f8:	f9000660 	str	x0, [x19, #8]
/home/qc2335/optee/optee_os/tee_api_objects.c:78
    18fc:	b9403be0 	ldr	w0, [sp, #56]
    1900:	f9000a60 	str	x0, [x19, #16]
/home/qc2335/optee/optee_os/tee_api_objects.c:79
    1904:	b9403fe0 	ldr	w0, [sp, #60]
    1908:	f9000e60 	str	x0, [x19, #24]
/home/qc2335/optee/optee_os/tee_api_objects.c:80
    190c:	b94043e0 	ldr	w0, [sp, #64]
    1910:	17ffffee 	b	18c8 <TEE_GetObjectInfo+0x64>
/home/qc2335/optee/optee_os/tee_api_objects.c:82
    1914:	f9400bf3 	ldr	x19, [sp, #16]
    1918:	a8c57bfd 	ldp	x29, x30, [sp], #80
    191c:	d65f03c0 	ret

0000000000001920 <__GP11_TEE_GetObjectInfo>:
__GP11_TEE_GetObjectInfo():
/home/qc2335/optee/optee_os/tee_api_objects.c:86
    1920:	a9bb7bfd 	stp	x29, x30, [sp, #-80]!
    1924:	910003fd 	mov	x29, sp
    1928:	f9000bf3 	str	x19, [sp, #16]
    192c:	aa0103f3 	mov	x19, x1
    1930:	b00000c1 	adrp	x1, 1a000 <_DYNAMIC>
    1934:	f9409821 	ldr	x1, [x1, #304]
    1938:	f9400022 	ldr	x2, [x1]
    193c:	f90027e2 	str	x2, [sp, #72]
    1940:	d2800002 	mov	x2, #0x0                   	// #0
/home/qc2335/optee/optee_os/tee_api_objects.c:90
    1944:	9100a3e1 	add	x1, sp, #0x28
/home/qc2335/optee/optee_os/tee_api_objects.c:87
    1948:	a902ffff 	stp	xzr, xzr, [sp, #40]
    194c:	f9001fff 	str	xzr, [sp, #56]
    1950:	b90043ff 	str	wzr, [sp, #64]
/home/qc2335/optee/optee_os/tee_api_objects.c:90
    1954:	9400094c 	bl	3e84 <_utee_cryp_obj_get_info>
/home/qc2335/optee/optee_os/tee_api_objects.c:92
    1958:	34000040 	cbz	w0, 1960 <__GP11_TEE_GetObjectInfo+0x40>
/home/qc2335/optee/optee_os/tee_api_objects.c:93
    195c:	94000632 	bl	3224 <TEE_Panic>
/home/qc2335/optee/optee_os/tee_api_objects.c:95
    1960:	b9402be0 	ldr	w0, [sp, #40]
    1964:	528017c1 	mov	w1, #0xbe                  	// #190
    1968:	72b40001 	movk	w1, #0xa000, lsl #16
    196c:	6b01001f 	cmp	w0, w1
    1970:	540001c1 	b.ne	19a8 <__GP11_TEE_GetObjectInfo+0x88>  // b.any
/home/qc2335/optee/optee_os/tee_api_objects.c:96
    1974:	52800000 	mov	w0, #0x0                   	// #0
/home/qc2335/optee/optee_os/tee_api_objects.c:97
    1978:	2900fe7f 	stp	wzr, wzr, [x19, #4]
/home/qc2335/optee/optee_os/tee_api_objects.c:99
    197c:	2901fe7f 	stp	wzr, wzr, [x19, #12]
/home/qc2335/optee/optee_os/tee_api_objects.c:100
    1980:	b900167f 	str	wzr, [x19, #20]
/home/qc2335/optee/optee_os/tee_api_objects.c:111
    1984:	b00000c1 	adrp	x1, 1a000 <_DYNAMIC>
/home/qc2335/optee/optee_os/tee_api_objects.c:101
    1988:	b9001a60 	str	w0, [x19, #24]
/home/qc2335/optee/optee_os/tee_api_objects.c:111
    198c:	f9409821 	ldr	x1, [x1, #304]
    1990:	f94027e0 	ldr	x0, [sp, #72]
    1994:	f9400022 	ldr	x2, [x1]
    1998:	eb020000 	subs	x0, x0, x2
    199c:	d2800002 	mov	x2, #0x0                   	// #0
    19a0:	540001e0 	b.eq	19dc <__GP11_TEE_GetObjectInfo+0xbc>  // b.none
    19a4:	97fffaa7 	bl	440 <__stack_chk_fail>
/home/qc2335/optee/optee_os/tee_api_objects.c:103
    19a8:	b9000260 	str	w0, [x19]
/home/qc2335/optee/optee_os/tee_api_objects.c:104
    19ac:	b9402fe0 	ldr	w0, [sp, #44]
    19b0:	b9000660 	str	w0, [x19, #4]
/home/qc2335/optee/optee_os/tee_api_objects.c:105
    19b4:	b94033e0 	ldr	w0, [sp, #48]
    19b8:	b9000a60 	str	w0, [x19, #8]
/home/qc2335/optee/optee_os/tee_api_objects.c:106
    19bc:	b94037e0 	ldr	w0, [sp, #52]
    19c0:	b9000e60 	str	w0, [x19, #12]
/home/qc2335/optee/optee_os/tee_api_objects.c:107
    19c4:	b9403be0 	ldr	w0, [sp, #56]
    19c8:	b9001260 	str	w0, [x19, #16]
/home/qc2335/optee/optee_os/tee_api_objects.c:108
    19cc:	b9403fe0 	ldr	w0, [sp, #60]
    19d0:	b9001660 	str	w0, [x19, #20]
/home/qc2335/optee/optee_os/tee_api_objects.c:109
    19d4:	b94043e0 	ldr	w0, [sp, #64]
    19d8:	17ffffeb 	b	1984 <__GP11_TEE_GetObjectInfo+0x64>
/home/qc2335/optee/optee_os/tee_api_objects.c:111
    19dc:	f9400bf3 	ldr	x19, [sp, #16]
    19e0:	a8c57bfd 	ldp	x29, x30, [sp], #80
    19e4:	d65f03c0 	ret

00000000000019e8 <TEE_GetObjectInfo1>:
TEE_GetObjectInfo1():
/home/qc2335/optee/optee_os/tee_api_objects.c:115
    19e8:	a9bb7bfd 	stp	x29, x30, [sp, #-80]!
    19ec:	b00000c2 	adrp	x2, 1a000 <_DYNAMIC>
    19f0:	910003fd 	mov	x29, sp
    19f4:	f9409842 	ldr	x2, [x2, #304]
    19f8:	a90153f3 	stp	x19, x20, [sp, #16]
    19fc:	aa0103f3 	mov	x19, x1
    1a00:	f9400041 	ldr	x1, [x2]
    1a04:	f90027e1 	str	x1, [sp, #72]
    1a08:	d2800001 	mov	x1, #0x0                   	// #0
/home/qc2335/optee/optee_os/tee_api_objects.c:116
    1a0c:	a902ffff 	stp	xzr, xzr, [sp, #40]
/home/qc2335/optee/optee_os/tee_api_objects.c:119
    1a10:	9100a3e1 	add	x1, sp, #0x28
/home/qc2335/optee/optee_os/tee_api_objects.c:116
    1a14:	f9001fff 	str	xzr, [sp, #56]
    1a18:	b90043ff 	str	wzr, [sp, #64]
/home/qc2335/optee/optee_os/tee_api_objects.c:119
    1a1c:	9400091a 	bl	3e84 <_utee_cryp_obj_get_info>
/home/qc2335/optee/optee_os/tee_api_objects.c:121
    1a20:	52800021 	mov	w1, #0x1                   	// #1
/home/qc2335/optee/optee_os/tee_api_objects.c:122
    1a24:	121e7802 	and	w2, w0, #0xfffffffd
/home/qc2335/optee/optee_os/tee_api_objects.c:121
    1a28:	7100001f 	cmp	w0, #0x0
    1a2c:	72be0201 	movk	w1, #0xf010, lsl #16
/home/qc2335/optee/optee_os/tee_api_objects.c:119
    1a30:	2a0003f4 	mov	w20, w0
/home/qc2335/optee/optee_os/tee_api_objects.c:121
    1a34:	7a411044 	ccmp	w2, w1, #0x4, ne  // ne = any
    1a38:	54000040 	b.eq	1a40 <TEE_GetObjectInfo1+0x58>  // b.none
/home/qc2335/optee/optee_os/tee_api_objects.c:124
    1a3c:	940005fa 	bl	3224 <TEE_Panic>
/home/qc2335/optee/optee_os/tee_api_objects.c:126
    1a40:	f94017e0 	ldr	x0, [sp, #40]
    1a44:	f9000260 	str	x0, [x19]
/home/qc2335/optee/optee_os/tee_api_objects.c:128
    1a48:	f9401be0 	ldr	x0, [sp, #48]
/home/qc2335/optee/optee_os/tee_api_objects.c:135
    1a4c:	b00000c2 	adrp	x2, 1a000 <_DYNAMIC>
/home/qc2335/optee/optee_os/tee_api_objects.c:128
    1a50:	f9000660 	str	x0, [x19, #8]
/home/qc2335/optee/optee_os/tee_api_objects.c:130
    1a54:	b9403be0 	ldr	w0, [sp, #56]
    1a58:	f9000a60 	str	x0, [x19, #16]
/home/qc2335/optee/optee_os/tee_api_objects.c:131
    1a5c:	b9403fe0 	ldr	w0, [sp, #60]
/home/qc2335/optee/optee_os/tee_api_objects.c:135
    1a60:	f9409842 	ldr	x2, [x2, #304]
/home/qc2335/optee/optee_os/tee_api_objects.c:131
    1a64:	f9000e60 	str	x0, [x19, #24]
/home/qc2335/optee/optee_os/tee_api_objects.c:132
    1a68:	b94043e0 	ldr	w0, [sp, #64]
    1a6c:	b9002260 	str	w0, [x19, #32]
/home/qc2335/optee/optee_os/tee_api_objects.c:135
    1a70:	f94027e0 	ldr	x0, [sp, #72]
    1a74:	f9400041 	ldr	x1, [x2]
    1a78:	eb010000 	subs	x0, x0, x1
    1a7c:	d2800001 	mov	x1, #0x0                   	// #0
    1a80:	54000040 	b.eq	1a88 <TEE_GetObjectInfo1+0xa0>  // b.none
    1a84:	97fffa6f 	bl	440 <__stack_chk_fail>
    1a88:	2a1403e0 	mov	w0, w20
    1a8c:	a94153f3 	ldp	x19, x20, [sp, #16]
    1a90:	a8c57bfd 	ldp	x29, x30, [sp], #80
    1a94:	d65f03c0 	ret

0000000000001a98 <__GP11_TEE_GetObjectInfo1>:
__GP11_TEE_GetObjectInfo1():
/home/qc2335/optee/optee_os/tee_api_objects.c:139
    1a98:	a9bb7bfd 	stp	x29, x30, [sp, #-80]!
    1a9c:	910003fd 	mov	x29, sp
    1aa0:	a90153f3 	stp	x19, x20, [sp, #16]
    1aa4:	aa0103f3 	mov	x19, x1
    1aa8:	b00000c1 	adrp	x1, 1a000 <_DYNAMIC>
    1aac:	f9409821 	ldr	x1, [x1, #304]
    1ab0:	f9400022 	ldr	x2, [x1]
    1ab4:	f90027e2 	str	x2, [sp, #72]
    1ab8:	d2800002 	mov	x2, #0x0                   	// #0
/home/qc2335/optee/optee_os/tee_api_objects.c:143
    1abc:	9100a3e1 	add	x1, sp, #0x28
/home/qc2335/optee/optee_os/tee_api_objects.c:140
    1ac0:	a902ffff 	stp	xzr, xzr, [sp, #40]
    1ac4:	f9001fff 	str	xzr, [sp, #56]
    1ac8:	b90043ff 	str	wzr, [sp, #64]
/home/qc2335/optee/optee_os/tee_api_objects.c:143
    1acc:	940008ee 	bl	3e84 <_utee_cryp_obj_get_info>
/home/qc2335/optee/optee_os/tee_api_objects.c:145
    1ad0:	52800021 	mov	w1, #0x1                   	// #1
/home/qc2335/optee/optee_os/tee_api_objects.c:146
    1ad4:	121e7802 	and	w2, w0, #0xfffffffd
/home/qc2335/optee/optee_os/tee_api_objects.c:145
    1ad8:	7100001f 	cmp	w0, #0x0
    1adc:	72be0201 	movk	w1, #0xf010, lsl #16
/home/qc2335/optee/optee_os/tee_api_objects.c:143
    1ae0:	2a0003f4 	mov	w20, w0
/home/qc2335/optee/optee_os/tee_api_objects.c:145
    1ae4:	7a411044 	ccmp	w2, w1, #0x4, ne  // ne = any
    1ae8:	54000040 	b.eq	1af0 <__GP11_TEE_GetObjectInfo1+0x58>  // b.none
/home/qc2335/optee/optee_os/tee_api_objects.c:148
    1aec:	940005ce 	bl	3224 <TEE_Panic>
/home/qc2335/optee/optee_os/tee_api_objects.c:150
    1af0:	b9402be0 	ldr	w0, [sp, #40]
/home/qc2335/optee/optee_os/tee_api_objects.c:159
    1af4:	b00000c1 	adrp	x1, 1a000 <_DYNAMIC>
/home/qc2335/optee/optee_os/tee_api_objects.c:150
    1af8:	b9000260 	str	w0, [x19]
/home/qc2335/optee/optee_os/tee_api_objects.c:151
    1afc:	b9402fe0 	ldr	w0, [sp, #44]
    1b00:	b9000660 	str	w0, [x19, #4]
/home/qc2335/optee/optee_os/tee_api_objects.c:152
    1b04:	b94033e0 	ldr	w0, [sp, #48]
    1b08:	b9000a60 	str	w0, [x19, #8]
/home/qc2335/optee/optee_os/tee_api_objects.c:153
    1b0c:	b94037e0 	ldr	w0, [sp, #52]
    1b10:	b9000e60 	str	w0, [x19, #12]
/home/qc2335/optee/optee_os/tee_api_objects.c:154
    1b14:	b9403be0 	ldr	w0, [sp, #56]
    1b18:	b9001260 	str	w0, [x19, #16]
/home/qc2335/optee/optee_os/tee_api_objects.c:155
    1b1c:	b9403fe0 	ldr	w0, [sp, #60]
/home/qc2335/optee/optee_os/tee_api_objects.c:159
    1b20:	f9409821 	ldr	x1, [x1, #304]
/home/qc2335/optee/optee_os/tee_api_objects.c:155
    1b24:	b9001660 	str	w0, [x19, #20]
/home/qc2335/optee/optee_os/tee_api_objects.c:156
    1b28:	b94043e0 	ldr	w0, [sp, #64]
    1b2c:	b9001a60 	str	w0, [x19, #24]
/home/qc2335/optee/optee_os/tee_api_objects.c:159
    1b30:	f94027e0 	ldr	x0, [sp, #72]
    1b34:	f9400022 	ldr	x2, [x1]
    1b38:	eb020000 	subs	x0, x0, x2
    1b3c:	d2800002 	mov	x2, #0x0                   	// #0
    1b40:	54000040 	b.eq	1b48 <__GP11_TEE_GetObjectInfo1+0xb0>  // b.none
    1b44:	97fffa3f 	bl	440 <__stack_chk_fail>
    1b48:	2a1403e0 	mov	w0, w20
    1b4c:	a94153f3 	ldp	x19, x20, [sp, #16]
    1b50:	a8c57bfd 	ldp	x29, x30, [sp], #80
    1b54:	d65f03c0 	ret

0000000000001b58 <TEE_RestrictObjectUsage1>:
TEE_RestrictObjectUsage1():
/home/qc2335/optee/optee_os/tee_api_objects.c:183
    1b58:	a9be7bfd 	stp	x29, x30, [sp, #-32]!
/home/qc2335/optee/optee_os/tee_api_objects.c:186
    1b5c:	2a0103e1 	mov	w1, w1
/home/qc2335/optee/optee_os/tee_api_objects.c:183
    1b60:	910003fd 	mov	x29, sp
    1b64:	f9000bf3 	str	x19, [sp, #16]
/home/qc2335/optee/optee_os/tee_api_objects.c:186
    1b68:	940008ca 	bl	3e90 <_utee_cryp_obj_restrict_usage>
/home/qc2335/optee/optee_os/tee_api_objects.c:189
    1b6c:	52800021 	mov	w1, #0x1                   	// #1
/home/qc2335/optee/optee_os/tee_api_objects.c:190
    1b70:	121e7802 	and	w2, w0, #0xfffffffd
/home/qc2335/optee/optee_os/tee_api_objects.c:189
    1b74:	7100001f 	cmp	w0, #0x0
    1b78:	72be0201 	movk	w1, #0xf010, lsl #16
/home/qc2335/optee/optee_os/tee_api_objects.c:186
    1b7c:	2a0003f3 	mov	w19, w0
/home/qc2335/optee/optee_os/tee_api_objects.c:189
    1b80:	7a411044 	ccmp	w2, w1, #0x4, ne  // ne = any
    1b84:	54000040 	b.eq	1b8c <TEE_RestrictObjectUsage1+0x34>  // b.none
/home/qc2335/optee/optee_os/tee_api_objects.c:192
    1b88:	940005a7 	bl	3224 <TEE_Panic>
/home/qc2335/optee/optee_os/tee_api_objects.c:195
    1b8c:	2a1303e0 	mov	w0, w19
    1b90:	f9400bf3 	ldr	x19, [sp, #16]
    1b94:	a8c27bfd 	ldp	x29, x30, [sp], #32
    1b98:	d65f03c0 	ret

0000000000001b9c <TEE_RestrictObjectUsage>:
TEE_RestrictObjectUsage():
/home/qc2335/optee/optee_os/tee_api_objects.c:168
    1b9c:	a9bb7bfd 	stp	x29, x30, [sp, #-80]!
    1ba0:	b00000c2 	adrp	x2, 1a000 <_DYNAMIC>
    1ba4:	910003fd 	mov	x29, sp
    1ba8:	f9409842 	ldr	x2, [x2, #304]
    1bac:	a90153f3 	stp	x19, x20, [sp, #16]
    1bb0:	2a0103f4 	mov	w20, w1
    1bb4:	f9400041 	ldr	x1, [x2]
    1bb8:	f90027e1 	str	x1, [sp, #72]
    1bbc:	d2800001 	mov	x1, #0x0                   	// #0
    1bc0:	aa0003f3 	mov	x19, x0
/home/qc2335/optee/optee_os/tee_api_objects.c:172
    1bc4:	9100a3e1 	add	x1, sp, #0x28
/home/qc2335/optee/optee_os/tee_api_objects.c:169
    1bc8:	a902ffff 	stp	xzr, xzr, [sp, #40]
    1bcc:	f9001fff 	str	xzr, [sp, #56]
    1bd0:	b90043ff 	str	wzr, [sp, #64]
/home/qc2335/optee/optee_os/tee_api_objects.c:172
    1bd4:	940008ac 	bl	3e84 <_utee_cryp_obj_get_info>
/home/qc2335/optee/optee_os/tee_api_objects.c:173
    1bd8:	b9402be1 	ldr	w1, [sp, #40]
    1bdc:	528017c0 	mov	w0, #0xbe                  	// #190
    1be0:	72b40000 	movk	w0, #0xa000, lsl #16
    1be4:	6b00003f 	cmp	w1, w0
    1be8:	540000c0 	b.eq	1c00 <TEE_RestrictObjectUsage+0x64>  // b.none
/home/qc2335/optee/optee_os/tee_api_objects.c:176
    1bec:	2a1403e1 	mov	w1, w20
    1bf0:	aa1303e0 	mov	x0, x19
    1bf4:	97ffffd9 	bl	1b58 <TEE_RestrictObjectUsage1>
/home/qc2335/optee/optee_os/tee_api_objects.c:178
    1bf8:	34000040 	cbz	w0, 1c00 <TEE_RestrictObjectUsage+0x64>
/home/qc2335/optee/optee_os/tee_api_objects.c:179
    1bfc:	9400058a 	bl	3224 <TEE_Panic>
/home/qc2335/optee/optee_os/tee_api_objects.c:180
    1c00:	b00000c2 	adrp	x2, 1a000 <_DYNAMIC>
    1c04:	f9409842 	ldr	x2, [x2, #304]
    1c08:	f94027e0 	ldr	x0, [sp, #72]
    1c0c:	f9400041 	ldr	x1, [x2]
    1c10:	eb010000 	subs	x0, x0, x1
    1c14:	d2800001 	mov	x1, #0x0                   	// #0
    1c18:	54000040 	b.eq	1c20 <TEE_RestrictObjectUsage+0x84>  // b.none
    1c1c:	97fffa09 	bl	440 <__stack_chk_fail>
    1c20:	a94153f3 	ldp	x19, x20, [sp, #16]
    1c24:	a8c57bfd 	ldp	x29, x30, [sp], #80
    1c28:	d65f03c0 	ret

0000000000001c2c <TEE_GetObjectBufferAttribute>:
TEE_GetObjectBufferAttribute():
/home/qc2335/optee/optee_os/tee_api_objects.c:200
    1c2c:	a9b97bfd 	stp	x29, x30, [sp, #-112]!
    1c30:	b00000c4 	adrp	x4, 1a000 <_DYNAMIC>
    1c34:	910003fd 	mov	x29, sp
    1c38:	f9409884 	ldr	x4, [x4, #304]
    1c3c:	a90153f3 	stp	x19, x20, [sp, #16]
    1c40:	aa0303f4 	mov	x20, x3
    1c44:	a9025bf5 	stp	x21, x22, [sp, #32]
    1c48:	aa0003f5 	mov	x21, x0
    1c4c:	2a0103f6 	mov	w22, w1
    1c50:	f9001bf7 	str	x23, [sp, #48]
/home/qc2335/optee/optee_os/tee_api_objects.c:205
    1c54:	d2800101 	mov	x1, #0x8                   	// #8
/home/qc2335/optee/optee_os/tee_api_objects.c:200
    1c58:	aa0203f7 	mov	x23, x2
    1c5c:	f9400080 	ldr	x0, [x4]
    1c60:	f90037e0 	str	x0, [sp, #104]
    1c64:	d2800000 	mov	x0, #0x0                   	// #0
/home/qc2335/optee/optee_os/tee_api_objects.c:201
    1c68:	a9047fff 	stp	xzr, xzr, [sp, #64]
/home/qc2335/optee/optee_os/tee_api_objects.c:205
    1c6c:	aa0303e0 	mov	x0, x3
/home/qc2335/optee/optee_os/tee_api_objects.c:201
    1c70:	a9057fff 	stp	xzr, xzr, [sp, #80]
    1c74:	b90063ff 	str	wzr, [sp, #96]
/home/qc2335/optee/optee_os/tee_api_objects.c:205
    1c78:	940005db 	bl	33e4 <__utee_check_inout_annotation>
/home/qc2335/optee/optee_os/tee_api_objects.c:207
    1c7c:	910123e1 	add	x1, sp, #0x48
    1c80:	aa1503e0 	mov	x0, x21
    1c84:	94000880 	bl	3e84 <_utee_cryp_obj_get_info>
    1c88:	2a0003f3 	mov	w19, w0
/home/qc2335/optee/optee_os/tee_api_objects.c:208
    1c8c:	35000180 	cbnz	w0, 1cbc <TEE_GetObjectBufferAttribute+0x90>
/home/qc2335/optee/optee_os/tee_api_objects.c:212
    1c90:	37e80416 	tbnz	w22, #29, 1d10 <TEE_GetObjectBufferAttribute+0xe4>
/home/qc2335/optee/optee_os/tee_api_objects.c:217
    1c94:	f9400280 	ldr	x0, [x20]
/home/qc2335/optee/optee_os/tee_api_objects.c:218
    1c98:	910103e3 	add	x3, sp, #0x40
    1c9c:	aa1703e2 	mov	x2, x23
    1ca0:	2a1603e1 	mov	w1, w22
/home/qc2335/optee/optee_os/tee_api_objects.c:217
    1ca4:	f90023e0 	str	x0, [sp, #64]
/home/qc2335/optee/optee_os/tee_api_objects.c:218
    1ca8:	aa1503e0 	mov	x0, x21
    1cac:	9400087c 	bl	3e9c <_utee_cryp_obj_get_attr>
    1cb0:	2a0003f3 	mov	w19, w0
/home/qc2335/optee/optee_os/tee_api_objects.c:220
    1cb4:	f94023e0 	ldr	x0, [sp, #64]
    1cb8:	f9000280 	str	x0, [x20]
/home/qc2335/optee/optee_os/tee_api_objects.c:223
    1cbc:	7100027f 	cmp	w19, #0x0
    1cc0:	129ffee0 	mov	w0, #0xffff0008            	// #-65528
    1cc4:	7a401264 	ccmp	w19, w0, #0x4, ne  // ne = any
    1cc8:	54000140 	b.eq	1cf0 <TEE_GetObjectBufferAttribute+0xc4>  // b.none
/home/qc2335/optee/optee_os/tee_api_objects.c:226
    1ccc:	121e7a61 	and	w1, w19, #0xfffffffd
/home/qc2335/optee/optee_os/tee_api_objects.c:225
    1cd0:	52800020 	mov	w0, #0x1                   	// #1
    1cd4:	72be0200 	movk	w0, #0xf010, lsl #16
    1cd8:	6b00003f 	cmp	w1, w0
    1cdc:	129ffde0 	mov	w0, #0xffff0010            	// #-65520
    1ce0:	7a401264 	ccmp	w19, w0, #0x4, ne  // ne = any
    1ce4:	54000060 	b.eq	1cf0 <TEE_GetObjectBufferAttribute+0xc4>  // b.none
/home/qc2335/optee/optee_os/tee_api_objects.c:228
    1ce8:	2a1303e0 	mov	w0, w19
    1cec:	9400054e 	bl	3224 <TEE_Panic>
/home/qc2335/optee/optee_os/tee_api_objects.c:231
    1cf0:	b00000c4 	adrp	x4, 1a000 <_DYNAMIC>
    1cf4:	f9409884 	ldr	x4, [x4, #304]
    1cf8:	f94037e0 	ldr	x0, [sp, #104]
    1cfc:	f9400081 	ldr	x1, [x4]
    1d00:	eb010000 	subs	x0, x0, x1
    1d04:	d2800001 	mov	x1, #0x0                   	// #0
    1d08:	54000080 	b.eq	1d18 <TEE_GetObjectBufferAttribute+0xec>  // b.none
    1d0c:	97fff9cd 	bl	440 <__stack_chk_fail>
/home/qc2335/optee/optee_os/tee_api_objects.c:213
    1d10:	129fff33 	mov	w19, #0xffff0006            	// #-65530
    1d14:	17ffffea 	b	1cbc <TEE_GetObjectBufferAttribute+0x90>
/home/qc2335/optee/optee_os/tee_api_objects.c:231
    1d18:	2a1303e0 	mov	w0, w19
    1d1c:	a94153f3 	ldp	x19, x20, [sp, #16]
    1d20:	a9425bf5 	ldp	x21, x22, [sp, #32]
    1d24:	f9401bf7 	ldr	x23, [sp, #48]
    1d28:	a8c77bfd 	ldp	x29, x30, [sp], #112
    1d2c:	d65f03c0 	ret

0000000000001d30 <__GP11_TEE_GetObjectBufferAttribute>:
__GP11_TEE_GetObjectBufferAttribute():
/home/qc2335/optee/optee_os/tee_api_objects.c:236
    1d30:	a9bb7bfd 	stp	x29, x30, [sp, #-80]!
    1d34:	910003fd 	mov	x29, sp
    1d38:	a90153f3 	stp	x19, x20, [sp, #16]
    1d3c:	b00000d4 	adrp	x20, 1a000 <_DYNAMIC>
    1d40:	aa0303f3 	mov	x19, x3
    1d44:	a9025bf5 	stp	x21, x22, [sp, #32]
    1d48:	aa0003f5 	mov	x21, x0
    1d4c:	2a0103f6 	mov	w22, w1
    1d50:	f9409a80 	ldr	x0, [x20, #304]
    1d54:	f9001bf7 	str	x23, [sp, #48]
    1d58:	aa0203f7 	mov	x23, x2
    1d5c:	f9400001 	ldr	x1, [x0]
    1d60:	f90027e1 	str	x1, [sp, #72]
    1d64:	d2800001 	mov	x1, #0x0                   	// #0
/home/qc2335/optee/optee_os/tee_api_objects.c:240
    1d68:	aa0303e0 	mov	x0, x3
    1d6c:	d2800081 	mov	x1, #0x4                   	// #4
/home/qc2335/optee/optee_os/tee_api_objects.c:238
    1d70:	f90023ff 	str	xzr, [sp, #64]
/home/qc2335/optee/optee_os/tee_api_objects.c:240
    1d74:	9400059c 	bl	33e4 <__utee_check_inout_annotation>
/home/qc2335/optee/optee_os/tee_api_objects.c:241
    1d78:	b9400260 	ldr	w0, [x19]
/home/qc2335/optee/optee_os/tee_api_objects.c:242
    1d7c:	aa1703e2 	mov	x2, x23
    1d80:	2a1603e1 	mov	w1, w22
    1d84:	910103e3 	add	x3, sp, #0x40
/home/qc2335/optee/optee_os/tee_api_objects.c:241
    1d88:	f90023e0 	str	x0, [sp, #64]
/home/qc2335/optee/optee_os/tee_api_objects.c:242
    1d8c:	aa1503e0 	mov	x0, x21
    1d90:	97ffffa7 	bl	1c2c <TEE_GetObjectBufferAttribute>
/home/qc2335/optee/optee_os/tee_api_objects.c:245
    1d94:	f9409a94 	ldr	x20, [x20, #304]
/home/qc2335/optee/optee_os/tee_api_objects.c:243
    1d98:	f94023e1 	ldr	x1, [sp, #64]
    1d9c:	b9000261 	str	w1, [x19]
/home/qc2335/optee/optee_os/tee_api_objects.c:245
    1da0:	f94027e1 	ldr	x1, [sp, #72]
    1da4:	f9400282 	ldr	x2, [x20]
    1da8:	eb020021 	subs	x1, x1, x2
    1dac:	d2800002 	mov	x2, #0x0                   	// #0
    1db0:	54000040 	b.eq	1db8 <__GP11_TEE_GetObjectBufferAttribute+0x88>  // b.none
    1db4:	97fff9a3 	bl	440 <__stack_chk_fail>
    1db8:	a94153f3 	ldp	x19, x20, [sp, #16]
    1dbc:	a9425bf5 	ldp	x21, x22, [sp, #32]
    1dc0:	f9401bf7 	ldr	x23, [sp, #48]
    1dc4:	a8c57bfd 	ldp	x29, x30, [sp], #80
    1dc8:	d65f03c0 	ret

0000000000001dcc <TEE_GetObjectValueAttribute>:
TEE_GetObjectValueAttribute():
/home/qc2335/optee/optee_os/tee_api_objects.c:250
    1dcc:	a9b87bfd 	stp	x29, x30, [sp, #-128]!
    1dd0:	b00000c4 	adrp	x4, 1a000 <_DYNAMIC>
    1dd4:	910003fd 	mov	x29, sp
    1dd8:	f9409884 	ldr	x4, [x4, #304]
    1ddc:	a90153f3 	stp	x19, x20, [sp, #16]
    1de0:	aa0303f4 	mov	x20, x3
    1de4:	a9025bf5 	stp	x21, x22, [sp, #32]
    1de8:	aa0003f6 	mov	x22, x0
    1dec:	aa0203f5 	mov	x21, x2
    1df0:	f9001bf7 	str	x23, [sp, #48]
    1df4:	2a0103f7 	mov	w23, w1
    1df8:	f9400080 	ldr	x0, [x4]
    1dfc:	f9003fe0 	str	x0, [sp, #120]
    1e00:	d2800000 	mov	x0, #0x0                   	// #0
/home/qc2335/optee/optee_os/tee_api_objects.c:251
    1e04:	a9057fff 	stp	xzr, xzr, [sp, #80]
/home/qc2335/optee/optee_os/tee_api_objects.c:254
    1e08:	d2800100 	mov	x0, #0x8                   	// #8
    1e0c:	f90027e0 	str	x0, [sp, #72]
/home/qc2335/optee/optee_os/tee_api_objects.c:251
    1e10:	f90033ff 	str	xzr, [sp, #96]
    1e14:	b9006bff 	str	wzr, [sp, #104]
/home/qc2335/optee/optee_os/tee_api_objects.c:256
    1e18:	b4000082 	cbz	x2, 1e28 <TEE_GetObjectValueAttribute+0x5c>
/home/qc2335/optee/optee_os/tee_api_objects.c:257
    1e1c:	aa0203e0 	mov	x0, x2
    1e20:	d2800081 	mov	x1, #0x4                   	// #4
    1e24:	9400055e 	bl	339c <__utee_check_out_annotation>
/home/qc2335/optee/optee_os/tee_api_objects.c:258
    1e28:	b4000094 	cbz	x20, 1e38 <TEE_GetObjectValueAttribute+0x6c>
/home/qc2335/optee/optee_os/tee_api_objects.c:259
    1e2c:	aa1403e0 	mov	x0, x20
    1e30:	d2800081 	mov	x1, #0x4                   	// #4
    1e34:	9400055a 	bl	339c <__utee_check_out_annotation>
/home/qc2335/optee/optee_os/tee_api_objects.c:261
    1e38:	910143e1 	add	x1, sp, #0x50
    1e3c:	aa1603e0 	mov	x0, x22
    1e40:	94000811 	bl	3e84 <_utee_cryp_obj_get_info>
    1e44:	2a0003f3 	mov	w19, w0
/home/qc2335/optee/optee_os/tee_api_objects.c:262
    1e48:	35000100 	cbnz	w0, 1e68 <TEE_GetObjectValueAttribute+0x9c>
/home/qc2335/optee/optee_os/tee_api_objects.c:266
    1e4c:	36e804d7 	tbz	w23, #29, 1ee4 <TEE_GetObjectValueAttribute+0x118>
/home/qc2335/optee/optee_os/tee_api_objects.c:271
    1e50:	910123e3 	add	x3, sp, #0x48
    1e54:	9101c3e2 	add	x2, sp, #0x70
    1e58:	2a1703e1 	mov	w1, w23
    1e5c:	aa1603e0 	mov	x0, x22
    1e60:	9400080f 	bl	3e9c <_utee_cryp_obj_get_attr>
    1e64:	2a0003f3 	mov	w19, w0
/home/qc2335/optee/optee_os/tee_api_objects.c:275
    1e68:	7100027f 	cmp	w19, #0x0
    1e6c:	129ffee0 	mov	w0, #0xffff0008            	// #-65528
    1e70:	7a401264 	ccmp	w19, w0, #0x4, ne  // ne = any
    1e74:	54000100 	b.eq	1e94 <TEE_GetObjectValueAttribute+0xc8>  // b.none
/home/qc2335/optee/optee_os/tee_api_objects.c:277
    1e78:	52800020 	mov	w0, #0x1                   	// #1
    1e7c:	121e7a61 	and	w1, w19, #0xfffffffd
    1e80:	72be0200 	movk	w0, #0xf010, lsl #16
    1e84:	6b00003f 	cmp	w1, w0
    1e88:	54000060 	b.eq	1e94 <TEE_GetObjectValueAttribute+0xc8>  // b.none
/home/qc2335/optee/optee_os/tee_api_objects.c:279
    1e8c:	2a1303e0 	mov	w0, w19
    1e90:	940004e5 	bl	3224 <TEE_Panic>
/home/qc2335/optee/optee_os/tee_api_objects.c:281
    1e94:	f94027e0 	ldr	x0, [sp, #72]
    1e98:	f100201f 	cmp	x0, #0x8
    1e9c:	54000060 	b.eq	1ea8 <TEE_GetObjectValueAttribute+0xdc>  // b.none
/home/qc2335/optee/optee_os/tee_api_objects.c:282
    1ea0:	52800000 	mov	w0, #0x0                   	// #0
    1ea4:	940004e0 	bl	3224 <TEE_Panic>
/home/qc2335/optee/optee_os/tee_api_objects.c:284
    1ea8:	350000f3 	cbnz	w19, 1ec4 <TEE_GetObjectValueAttribute+0xf8>
/home/qc2335/optee/optee_os/tee_api_objects.c:285
    1eac:	b4000075 	cbz	x21, 1eb8 <TEE_GetObjectValueAttribute+0xec>
/home/qc2335/optee/optee_os/tee_api_objects.c:286
    1eb0:	b94073e0 	ldr	w0, [sp, #112]
    1eb4:	b90002a0 	str	w0, [x21]
/home/qc2335/optee/optee_os/tee_api_objects.c:287
    1eb8:	b4000074 	cbz	x20, 1ec4 <TEE_GetObjectValueAttribute+0xf8>
/home/qc2335/optee/optee_os/tee_api_objects.c:288
    1ebc:	b94077e0 	ldr	w0, [sp, #116]
    1ec0:	b9000280 	str	w0, [x20]
/home/qc2335/optee/optee_os/tee_api_objects.c:292
    1ec4:	b00000c4 	adrp	x4, 1a000 <_DYNAMIC>
    1ec8:	f9409884 	ldr	x4, [x4, #304]
    1ecc:	f9403fe0 	ldr	x0, [sp, #120]
    1ed0:	f9400081 	ldr	x1, [x4]
    1ed4:	eb010000 	subs	x0, x0, x1
    1ed8:	d2800001 	mov	x1, #0x0                   	// #0
    1edc:	54000080 	b.eq	1eec <TEE_GetObjectValueAttribute+0x120>  // b.none
    1ee0:	97fff958 	bl	440 <__stack_chk_fail>
/home/qc2335/optee/optee_os/tee_api_objects.c:267
    1ee4:	129fff33 	mov	w19, #0xffff0006            	// #-65530
    1ee8:	17ffffe0 	b	1e68 <TEE_GetObjectValueAttribute+0x9c>
/home/qc2335/optee/optee_os/tee_api_objects.c:292
    1eec:	2a1303e0 	mov	w0, w19
    1ef0:	a94153f3 	ldp	x19, x20, [sp, #16]
    1ef4:	a9425bf5 	ldp	x21, x22, [sp, #32]
    1ef8:	f9401bf7 	ldr	x23, [sp, #48]
    1efc:	a8c87bfd 	ldp	x29, x30, [sp], #128
    1f00:	d65f03c0 	ret

0000000000001f04 <TEE_CloseObject>:
TEE_CloseObject():
/home/qc2335/optee/optee_os/tee_api_objects.c:298
    1f04:	b4000120 	cbz	x0, 1f28 <TEE_CloseObject+0x24>
/home/qc2335/optee/optee_os/tee_api_objects.c:295
    1f08:	a9bf7bfd 	stp	x29, x30, [sp, #-16]!
    1f0c:	910003fd 	mov	x29, sp
/home/qc2335/optee/optee_os/tee_api_objects.c:301
    1f10:	940007e9 	bl	3eb4 <_utee_cryp_obj_close>
/home/qc2335/optee/optee_os/tee_api_objects.c:302
    1f14:	34000060 	cbz	w0, 1f20 <TEE_CloseObject+0x1c>
/home/qc2335/optee/optee_os/tee_api_objects.c:304
    1f18:	a8c17bfd 	ldp	x29, x30, [sp], #16
/home/qc2335/optee/optee_os/tee_api_objects.c:303
    1f1c:	140004c2 	b	3224 <TEE_Panic>
/home/qc2335/optee/optee_os/tee_api_objects.c:304
    1f20:	a8c17bfd 	ldp	x29, x30, [sp], #16
    1f24:	d65f03c0 	ret
    1f28:	d65f03c0 	ret

0000000000001f2c <__GP11_TEE_AllocateTransientObject>:
__GP11_TEE_AllocateTransientObject():
/home/qc2335/optee/optee_os/tee_api_objects.c:322
    1f2c:	a9bc7bfd 	stp	x29, x30, [sp, #-64]!
    1f30:	b00000c3 	adrp	x3, 1a000 <_DYNAMIC>
    1f34:	910003fd 	mov	x29, sp
    1f38:	f9409863 	ldr	x3, [x3, #304]
    1f3c:	a90153f3 	stp	x19, x20, [sp, #16]
    1f40:	2a0003f3 	mov	w19, w0
    1f44:	f90013f5 	str	x21, [sp, #32]
    1f48:	aa0203f4 	mov	x20, x2
    1f4c:	2a0103f5 	mov	w21, w1
/home/qc2335/optee/optee_os/tee_api_objects.c:326
    1f50:	d2800101 	mov	x1, #0x8                   	// #8
/home/qc2335/optee/optee_os/tee_api_objects.c:322
    1f54:	f9400060 	ldr	x0, [x3]
    1f58:	f9001fe0 	str	x0, [sp, #56]
    1f5c:	d2800000 	mov	x0, #0x0                   	// #0
/home/qc2335/optee/optee_os/tee_api_objects.c:326
    1f60:	aa0203e0 	mov	x0, x2
    1f64:	9400050e 	bl	339c <__utee_check_out_annotation>
/home/qc2335/optee/optee_os/tee_api_objects.c:328
    1f68:	2a1503e1 	mov	w1, w21
    1f6c:	2a1303e0 	mov	w0, w19
    1f70:	9100d3e2 	add	x2, sp, #0x34
    1f74:	940007cd 	bl	3ea8 <_utee_cryp_obj_alloc>
/home/qc2335/optee/optee_os/tee_api_objects.c:330
    1f78:	7100001f 	cmp	w0, #0x0
    1f7c:	129ffe61 	mov	w1, #0xffff000c            	// #-65524
/home/qc2335/optee/optee_os/tee_api_objects.c:328
    1f80:	2a0003f3 	mov	w19, w0
/home/qc2335/optee/optee_os/tee_api_objects.c:330
    1f84:	7a411004 	ccmp	w0, w1, #0x4, ne  // ne = any
    1f88:	540001a0 	b.eq	1fbc <__GP11_TEE_AllocateTransientObject+0x90>  // b.none
/home/qc2335/optee/optee_os/tee_api_objects.c:331
    1f8c:	129ffea1 	mov	w1, #0xffff000a            	// #-65526
    1f90:	6b01001f 	cmp	w0, w1
    1f94:	54000040 	b.eq	1f9c <__GP11_TEE_AllocateTransientObject+0x70>  // b.none
/home/qc2335/optee/optee_os/tee_api_objects.c:333
    1f98:	940004a3 	bl	3224 <TEE_Panic>
/home/qc2335/optee/optee_os/tee_api_objects.c:339
    1f9c:	b00000c3 	adrp	x3, 1a000 <_DYNAMIC>
    1fa0:	f9409863 	ldr	x3, [x3, #304]
    1fa4:	f9401fe0 	ldr	x0, [sp, #56]
    1fa8:	f9400061 	ldr	x1, [x3]
    1fac:	eb010000 	subs	x0, x0, x1
    1fb0:	d2800001 	mov	x1, #0x0                   	// #0
    1fb4:	540000c0 	b.eq	1fcc <__GP11_TEE_AllocateTransientObject+0xa0>  // b.none
    1fb8:	97fff922 	bl	440 <__stack_chk_fail>
/home/qc2335/optee/optee_os/tee_api_objects.c:335
    1fbc:	35ffff00 	cbnz	w0, 1f9c <__GP11_TEE_AllocateTransientObject+0x70>
/home/qc2335/optee/optee_os/tee_api_objects.c:336
    1fc0:	b94037e0 	ldr	w0, [sp, #52]
    1fc4:	f9000280 	str	x0, [x20]
/home/qc2335/optee/optee_os/tee_api_objects.c:338
    1fc8:	17fffff5 	b	1f9c <__GP11_TEE_AllocateTransientObject+0x70>
/home/qc2335/optee/optee_os/tee_api_objects.c:339
    1fcc:	2a1303e0 	mov	w0, w19
    1fd0:	a94153f3 	ldp	x19, x20, [sp, #16]
    1fd4:	f94013f5 	ldr	x21, [sp, #32]
    1fd8:	a8c47bfd 	ldp	x29, x30, [sp], #64
    1fdc:	d65f03c0 	ret

0000000000001fe0 <TEE_AllocateTransientObject>:
TEE_AllocateTransientObject():
/home/qc2335/optee/optee_os/tee_api_objects.c:312
    1fe0:	528017e3 	mov	w3, #0xbf                  	// #191
    1fe4:	72b40003 	movk	w3, #0xa000, lsl #16
    1fe8:	6b03001f 	cmp	w0, w3
    1fec:	54000040 	b.eq	1ff4 <TEE_AllocateTransientObject+0x14>  // b.none
/home/qc2335/optee/optee_os/tee_api_objects.c:315
    1ff0:	17ffffcf 	b	1f2c <__GP11_TEE_AllocateTransientObject>
/home/qc2335/optee/optee_os/tee_api_objects.c:317
    1ff4:	129ffea0 	mov	w0, #0xffff000a            	// #-65526
    1ff8:	d65f03c0 	ret

0000000000001ffc <TEE_FreeTransientObject>:
TEE_FreeTransientObject():
/home/qc2335/optee/optee_os/tee_api_objects.c:342
    1ffc:	a9bb7bfd 	stp	x29, x30, [sp, #-80]!
    2000:	900000c1 	adrp	x1, 1a000 <_DYNAMIC>
    2004:	910003fd 	mov	x29, sp
    2008:	f9409821 	ldr	x1, [x1, #304]
    200c:	f9000bf3 	str	x19, [sp, #16]
    2010:	f9400022 	ldr	x2, [x1]
    2014:	f90027e2 	str	x2, [sp, #72]
    2018:	d2800002 	mov	x2, #0x0                   	// #0
/home/qc2335/optee/optee_os/tee_api_objects.c:343
    201c:	a902ffff 	stp	xzr, xzr, [sp, #40]
    2020:	f9001fff 	str	xzr, [sp, #56]
    2024:	b90043ff 	str	wzr, [sp, #64]
/home/qc2335/optee/optee_os/tee_api_objects.c:346
    2028:	b40001c0 	cbz	x0, 2060 <TEE_FreeTransientObject+0x64>
    202c:	aa0003f3 	mov	x19, x0
/home/qc2335/optee/optee_os/tee_api_objects.c:349
    2030:	9100a3e1 	add	x1, sp, #0x28
    2034:	94000794 	bl	3e84 <_utee_cryp_obj_get_info>
/home/qc2335/optee/optee_os/tee_api_objects.c:350
    2038:	34000040 	cbz	w0, 2040 <TEE_FreeTransientObject+0x44>
/home/qc2335/optee/optee_os/tee_api_objects.c:351
    203c:	9400047a 	bl	3224 <TEE_Panic>
/home/qc2335/optee/optee_os/tee_api_objects.c:353
    2040:	b94043e0 	ldr	w0, [sp, #64]
    2044:	36800060 	tbz	w0, #16, 2050 <TEE_FreeTransientObject+0x54>
/home/qc2335/optee/optee_os/tee_api_objects.c:354
    2048:	52800000 	mov	w0, #0x0                   	// #0
    204c:	94000476 	bl	3224 <TEE_Panic>
/home/qc2335/optee/optee_os/tee_api_objects.c:356
    2050:	aa1303e0 	mov	x0, x19
    2054:	94000798 	bl	3eb4 <_utee_cryp_obj_close>
/home/qc2335/optee/optee_os/tee_api_objects.c:357
    2058:	34000040 	cbz	w0, 2060 <TEE_FreeTransientObject+0x64>
/home/qc2335/optee/optee_os/tee_api_objects.c:358
    205c:	94000472 	bl	3224 <TEE_Panic>
/home/qc2335/optee/optee_os/tee_api_objects.c:359
    2060:	900000c1 	adrp	x1, 1a000 <_DYNAMIC>
    2064:	f9409821 	ldr	x1, [x1, #304]
    2068:	f94027e0 	ldr	x0, [sp, #72]
    206c:	f9400022 	ldr	x2, [x1]
    2070:	eb020000 	subs	x0, x0, x2
    2074:	d2800002 	mov	x2, #0x0                   	// #0
    2078:	54000040 	b.eq	2080 <TEE_FreeTransientObject+0x84>  // b.none
    207c:	97fff8f1 	bl	440 <__stack_chk_fail>
    2080:	f9400bf3 	ldr	x19, [sp, #16]
    2084:	a8c57bfd 	ldp	x29, x30, [sp], #80
    2088:	d65f03c0 	ret

000000000000208c <TEE_ResetTransientObject>:
TEE_ResetTransientObject():
/home/qc2335/optee/optee_os/tee_api_objects.c:362
    208c:	a9bb7bfd 	stp	x29, x30, [sp, #-80]!
    2090:	900000c1 	adrp	x1, 1a000 <_DYNAMIC>
    2094:	910003fd 	mov	x29, sp
    2098:	f9409821 	ldr	x1, [x1, #304]
    209c:	f9000bf3 	str	x19, [sp, #16]
    20a0:	f9400022 	ldr	x2, [x1]
    20a4:	f90027e2 	str	x2, [sp, #72]
    20a8:	d2800002 	mov	x2, #0x0                   	// #0
/home/qc2335/optee/optee_os/tee_api_objects.c:363
    20ac:	a902ffff 	stp	xzr, xzr, [sp, #40]
    20b0:	f9001fff 	str	xzr, [sp, #56]
    20b4:	b90043ff 	str	wzr, [sp, #64]
/home/qc2335/optee/optee_os/tee_api_objects.c:366
    20b8:	b40001c0 	cbz	x0, 20f0 <TEE_ResetTransientObject+0x64>
    20bc:	aa0003f3 	mov	x19, x0
/home/qc2335/optee/optee_os/tee_api_objects.c:369
    20c0:	9100a3e1 	add	x1, sp, #0x28
    20c4:	94000770 	bl	3e84 <_utee_cryp_obj_get_info>
/home/qc2335/optee/optee_os/tee_api_objects.c:370
    20c8:	34000040 	cbz	w0, 20d0 <TEE_ResetTransientObject+0x44>
/home/qc2335/optee/optee_os/tee_api_objects.c:371
    20cc:	94000456 	bl	3224 <TEE_Panic>
/home/qc2335/optee/optee_os/tee_api_objects.c:373
    20d0:	b94043e0 	ldr	w0, [sp, #64]
    20d4:	36800060 	tbz	w0, #16, 20e0 <TEE_ResetTransientObject+0x54>
/home/qc2335/optee/optee_os/tee_api_objects.c:374
    20d8:	52800000 	mov	w0, #0x0                   	// #0
    20dc:	94000452 	bl	3224 <TEE_Panic>
/home/qc2335/optee/optee_os/tee_api_objects.c:376
    20e0:	aa1303e0 	mov	x0, x19
    20e4:	94000777 	bl	3ec0 <_utee_cryp_obj_reset>
/home/qc2335/optee/optee_os/tee_api_objects.c:377
    20e8:	34000040 	cbz	w0, 20f0 <TEE_ResetTransientObject+0x64>
/home/qc2335/optee/optee_os/tee_api_objects.c:378
    20ec:	9400044e 	bl	3224 <TEE_Panic>
/home/qc2335/optee/optee_os/tee_api_objects.c:379
    20f0:	900000c1 	adrp	x1, 1a000 <_DYNAMIC>
    20f4:	f9409821 	ldr	x1, [x1, #304]
    20f8:	f94027e0 	ldr	x0, [sp, #72]
    20fc:	f9400022 	ldr	x2, [x1]
    2100:	eb020000 	subs	x0, x0, x2
    2104:	d2800002 	mov	x2, #0x0                   	// #0
    2108:	54000040 	b.eq	2110 <TEE_ResetTransientObject+0x84>  // b.none
    210c:	97fff8cd 	bl	440 <__stack_chk_fail>
    2110:	f9400bf3 	ldr	x19, [sp, #16]
    2114:	a8c57bfd 	ldp	x29, x30, [sp], #80
    2118:	d65f03c0 	ret

000000000000211c <TEE_PopulateTransientObject>:
TEE_PopulateTransientObject():
/home/qc2335/optee/optee_os/tee_api_objects.c:384
    211c:	a9b97bfd 	stp	x29, x30, [sp, #-112]!
    2120:	900000c3 	adrp	x3, 1a000 <_DYNAMIC>
    2124:	910003fd 	mov	x29, sp
    2128:	f9409863 	ldr	x3, [x3, #304]
    212c:	a90153f3 	stp	x19, x20, [sp, #16]
    2130:	aa0003f4 	mov	x20, x0
    2134:	a9025bf5 	stp	x21, x22, [sp, #32]
    2138:	aa0103f5 	mov	x21, x1
    213c:	f9001bf7 	str	x23, [sp, #48]
    2140:	2a0203f7 	mov	w23, w2
/home/qc2335/optee/optee_os/tee_api_objects.c:389
    2144:	aa1703e1 	mov	x1, x23
/home/qc2335/optee/optee_os/tee_api_objects.c:384
    2148:	aa1703f3 	mov	x19, x23
    214c:	f9400060 	ldr	x0, [x3]
    2150:	f90037a0 	str	x0, [x29, #104]
    2154:	d2800000 	mov	x0, #0x0                   	// #0
/home/qc2335/optee/optee_os/tee_api_objects.c:385
    2158:	52800303 	mov	w3, #0x18                  	// #24
/home/qc2335/optee/optee_os/tee_api_objects.c:389
    215c:	aa1503e0 	mov	x0, x21
/home/qc2335/optee/optee_os/tee_api_objects.c:386
    2160:	a904ffbf 	stp	xzr, xzr, [x29, #72]
/home/qc2335/optee/optee_os/tee_api_objects.c:385
    2164:	9ba37ee3 	umull	x3, w23, w3
/home/qc2335/optee/optee_os/tee_api_objects.c:386
    2168:	f9002fbf 	str	xzr, [x29, #88]
/home/qc2335/optee/optee_os/tee_api_objects.c:385
    216c:	91003c63 	add	x3, x3, #0xf
/home/qc2335/optee/optee_os/tee_api_objects.c:386
    2170:	b90063bf 	str	wzr, [x29, #96]
/home/qc2335/optee/optee_os/tee_api_objects.c:385
    2174:	927c8463 	and	x3, x3, #0x3ffffffff0
    2178:	cb2363ff 	sub	sp, sp, x3
    217c:	910003f6 	mov	x22, sp
/home/qc2335/optee/optee_os/tee_api_objects.c:389
    2180:	9400048f 	bl	33bc <__utee_check_attr_in_annotation>
/home/qc2335/optee/optee_os/tee_api_objects.c:391
    2184:	910123a1 	add	x1, x29, #0x48
    2188:	aa1403e0 	mov	x0, x20
    218c:	9400073e 	bl	3e84 <_utee_cryp_obj_get_info>
/home/qc2335/optee/optee_os/tee_api_objects.c:392
    2190:	34000040 	cbz	w0, 2198 <TEE_PopulateTransientObject+0x7c>
/home/qc2335/optee/optee_os/tee_api_objects.c:393
    2194:	94000424 	bl	3224 <TEE_Panic>
/home/qc2335/optee/optee_os/tee_api_objects.c:396
    2198:	b94063a0 	ldr	w0, [x29, #96]
    219c:	36800060 	tbz	w0, #16, 21a8 <TEE_PopulateTransientObject+0x8c>
/home/qc2335/optee/optee_os/tee_api_objects.c:397
    21a0:	52800000 	mov	w0, #0x0                   	// #0
    21a4:	94000420 	bl	3224 <TEE_Panic>
/home/qc2335/optee/optee_os/tee_api_objects.c:400
    21a8:	b94063a0 	ldr	w0, [x29, #96]
    21ac:	36880060 	tbz	w0, #17, 21b8 <TEE_PopulateTransientObject+0x9c>
/home/qc2335/optee/optee_os/tee_api_objects.c:401
    21b0:	52800000 	mov	w0, #0x0                   	// #0
    21b4:	9400041c 	bl	3224 <TEE_Panic>
/home/qc2335/optee/optee_os/tee_api_objects.c:403
    21b8:	2a1303e2 	mov	w2, w19
    21bc:	aa1503e1 	mov	x1, x21
    21c0:	aa1603e0 	mov	x0, x22
    21c4:	97fffd80 	bl	17c4 <__utee_from_attr>
/home/qc2335/optee/optee_os/tee_api_objects.c:404
    21c8:	aa1603e1 	mov	x1, x22
    21cc:	aa1703e2 	mov	x2, x23
    21d0:	aa1403e0 	mov	x0, x20
    21d4:	9400073e 	bl	3ecc <_utee_cryp_obj_populate>
/home/qc2335/optee/optee_os/tee_api_objects.c:405
    21d8:	7100001f 	cmp	w0, #0x0
    21dc:	129fff21 	mov	w1, #0xffff0006            	// #-65530
/home/qc2335/optee/optee_os/tee_api_objects.c:404
    21e0:	2a0003f3 	mov	w19, w0
/home/qc2335/optee/optee_os/tee_api_objects.c:405
    21e4:	7a411004 	ccmp	w0, w1, #0x4, ne  // ne = any
    21e8:	54000040 	b.eq	21f0 <TEE_PopulateTransientObject+0xd4>  // b.none
/home/qc2335/optee/optee_os/tee_api_objects.c:406
    21ec:	9400040e 	bl	3224 <TEE_Panic>
/home/qc2335/optee/optee_os/tee_api_objects.c:408
    21f0:	900000c3 	adrp	x3, 1a000 <_DYNAMIC>
    21f4:	f9409863 	ldr	x3, [x3, #304]
    21f8:	f94037a0 	ldr	x0, [x29, #104]
    21fc:	f9400061 	ldr	x1, [x3]
    2200:	eb010000 	subs	x0, x0, x1
    2204:	d2800001 	mov	x1, #0x0                   	// #0
    2208:	54000040 	b.eq	2210 <TEE_PopulateTransientObject+0xf4>  // b.none
    220c:	97fff88d 	bl	440 <__stack_chk_fail>
    2210:	910003bf 	mov	sp, x29
    2214:	2a1303e0 	mov	w0, w19
    2218:	a94153f3 	ldp	x19, x20, [sp, #16]
    221c:	a9425bf5 	ldp	x21, x22, [sp, #32]
    2220:	f9401bf7 	ldr	x23, [sp, #48]
    2224:	a8c77bfd 	ldp	x29, x30, [sp], #112
    2228:	d65f03c0 	ret

000000000000222c <__GP11_TEE_PopulateTransientObject>:
__GP11_TEE_PopulateTransientObject():
/home/qc2335/optee/optee_os/tee_api_objects.c:413
    222c:	a9b97bfd 	stp	x29, x30, [sp, #-112]!
    2230:	900000c3 	adrp	x3, 1a000 <_DYNAMIC>
    2234:	910003fd 	mov	x29, sp
    2238:	f9409863 	ldr	x3, [x3, #304]
    223c:	a90153f3 	stp	x19, x20, [sp, #16]
    2240:	aa0003f4 	mov	x20, x0
    2244:	a9025bf5 	stp	x21, x22, [sp, #32]
    2248:	aa0103f5 	mov	x21, x1
    224c:	f9001bf7 	str	x23, [sp, #48]
    2250:	2a0203f7 	mov	w23, w2
/home/qc2335/optee/optee_os/tee_api_objects.c:418
    2254:	aa1703e1 	mov	x1, x23
/home/qc2335/optee/optee_os/tee_api_objects.c:413
    2258:	aa1703f3 	mov	x19, x23
    225c:	f9400060 	ldr	x0, [x3]
    2260:	f90037a0 	str	x0, [x29, #104]
    2264:	d2800000 	mov	x0, #0x0                   	// #0
/home/qc2335/optee/optee_os/tee_api_objects.c:414
    2268:	52800303 	mov	w3, #0x18                  	// #24
/home/qc2335/optee/optee_os/tee_api_objects.c:418
    226c:	aa1503e0 	mov	x0, x21
/home/qc2335/optee/optee_os/tee_api_objects.c:415
    2270:	a904ffbf 	stp	xzr, xzr, [x29, #72]
/home/qc2335/optee/optee_os/tee_api_objects.c:414
    2274:	9ba37ee3 	umull	x3, w23, w3
/home/qc2335/optee/optee_os/tee_api_objects.c:415
    2278:	f9002fbf 	str	xzr, [x29, #88]
/home/qc2335/optee/optee_os/tee_api_objects.c:414
    227c:	91003c63 	add	x3, x3, #0xf
/home/qc2335/optee/optee_os/tee_api_objects.c:415
    2280:	b90063bf 	str	wzr, [x29, #96]
/home/qc2335/optee/optee_os/tee_api_objects.c:414
    2284:	927c8463 	and	x3, x3, #0x3ffffffff0
    2288:	cb2363ff 	sub	sp, sp, x3
    228c:	910003f6 	mov	x22, sp
/home/qc2335/optee/optee_os/tee_api_objects.c:418
    2290:	94000454 	bl	33e0 <__utee_check_gp11_attr_in_annotation>
/home/qc2335/optee/optee_os/tee_api_objects.c:420
    2294:	910123a1 	add	x1, x29, #0x48
    2298:	aa1403e0 	mov	x0, x20
    229c:	940006fa 	bl	3e84 <_utee_cryp_obj_get_info>
/home/qc2335/optee/optee_os/tee_api_objects.c:421
    22a0:	34000040 	cbz	w0, 22a8 <__GP11_TEE_PopulateTransientObject+0x7c>
/home/qc2335/optee/optee_os/tee_api_objects.c:422
    22a4:	940003e0 	bl	3224 <TEE_Panic>
/home/qc2335/optee/optee_os/tee_api_objects.c:425
    22a8:	b94063a0 	ldr	w0, [x29, #96]
    22ac:	36800060 	tbz	w0, #16, 22b8 <__GP11_TEE_PopulateTransientObject+0x8c>
/home/qc2335/optee/optee_os/tee_api_objects.c:426
    22b0:	52800000 	mov	w0, #0x0                   	// #0
    22b4:	940003dc 	bl	3224 <TEE_Panic>
/home/qc2335/optee/optee_os/tee_api_objects.c:429
    22b8:	b94063a0 	ldr	w0, [x29, #96]
    22bc:	36880060 	tbz	w0, #17, 22c8 <__GP11_TEE_PopulateTransientObject+0x9c>
/home/qc2335/optee/optee_os/tee_api_objects.c:430
    22c0:	52800000 	mov	w0, #0x0                   	// #0
    22c4:	940003d8 	bl	3224 <TEE_Panic>
/home/qc2335/optee/optee_os/tee_api_objects.c:432
    22c8:	2a1303e2 	mov	w2, w19
    22cc:	aa1503e1 	mov	x1, x21
    22d0:	aa1603e0 	mov	x0, x22
    22d4:	97fffd50 	bl	1814 <__utee_from_gp11_attr>
/home/qc2335/optee/optee_os/tee_api_objects.c:433
    22d8:	aa1603e1 	mov	x1, x22
    22dc:	aa1703e2 	mov	x2, x23
    22e0:	aa1403e0 	mov	x0, x20
    22e4:	940006fa 	bl	3ecc <_utee_cryp_obj_populate>
/home/qc2335/optee/optee_os/tee_api_objects.c:434
    22e8:	7100001f 	cmp	w0, #0x0
    22ec:	129fff21 	mov	w1, #0xffff0006            	// #-65530
/home/qc2335/optee/optee_os/tee_api_objects.c:433
    22f0:	2a0003f3 	mov	w19, w0
/home/qc2335/optee/optee_os/tee_api_objects.c:434
    22f4:	7a411004 	ccmp	w0, w1, #0x4, ne  // ne = any
    22f8:	54000040 	b.eq	2300 <__GP11_TEE_PopulateTransientObject+0xd4>  // b.none
/home/qc2335/optee/optee_os/tee_api_objects.c:435
    22fc:	940003ca 	bl	3224 <TEE_Panic>
/home/qc2335/optee/optee_os/tee_api_objects.c:437
    2300:	900000c3 	adrp	x3, 1a000 <_DYNAMIC>
    2304:	f9409863 	ldr	x3, [x3, #304]
    2308:	f94037a0 	ldr	x0, [x29, #104]
    230c:	f9400061 	ldr	x1, [x3]
    2310:	eb010000 	subs	x0, x0, x1
    2314:	d2800001 	mov	x1, #0x0                   	// #0
    2318:	54000040 	b.eq	2320 <__GP11_TEE_PopulateTransientObject+0xf4>  // b.none
    231c:	97fff849 	bl	440 <__stack_chk_fail>
    2320:	910003bf 	mov	sp, x29
    2324:	2a1303e0 	mov	w0, w19
    2328:	a94153f3 	ldp	x19, x20, [sp, #16]
    232c:	a9425bf5 	ldp	x21, x22, [sp, #32]
    2330:	f9401bf7 	ldr	x23, [sp, #48]
    2334:	a8c77bfd 	ldp	x29, x30, [sp], #112
    2338:	d65f03c0 	ret

000000000000233c <TEE_InitRefAttribute>:
TEE_InitRefAttribute():
/home/qc2335/optee/optee_os/tee_api_objects.c:441
    233c:	a9bd7bfd 	stp	x29, x30, [sp, #-48]!
    2340:	910003fd 	mov	x29, sp
    2344:	a90153f3 	stp	x19, x20, [sp, #16]
    2348:	2a0103f4 	mov	w20, w1
    234c:	aa0003f3 	mov	x19, x0
/home/qc2335/optee/optee_os/tee_api_objects.c:442
    2350:	d2800301 	mov	x1, #0x18                  	// #24
/home/qc2335/optee/optee_os/tee_api_objects.c:441
    2354:	a9025bf5 	stp	x21, x22, [sp, #32]
    2358:	aa0203f6 	mov	x22, x2
    235c:	aa0303f5 	mov	x21, x3
/home/qc2335/optee/optee_os/tee_api_objects.c:442
    2360:	9400040f 	bl	339c <__utee_check_out_annotation>
/home/qc2335/optee/optee_os/tee_api_objects.c:444
    2364:	36e80074 	tbz	w20, #29, 2370 <TEE_InitRefAttribute+0x34>
/home/qc2335/optee/optee_os/tee_api_objects.c:445
    2368:	52800000 	mov	w0, #0x0                   	// #0
    236c:	940003ae 	bl	3224 <TEE_Panic>
/home/qc2335/optee/optee_os/tee_api_objects.c:446
    2370:	b9000274 	str	w20, [x19]
/home/qc2335/optee/optee_os/tee_api_objects.c:448
    2374:	a900d676 	stp	x22, x21, [x19, #8]
/home/qc2335/optee/optee_os/tee_api_objects.c:449
    2378:	a94153f3 	ldp	x19, x20, [sp, #16]
    237c:	a9425bf5 	ldp	x21, x22, [sp, #32]
    2380:	a8c37bfd 	ldp	x29, x30, [sp], #48
    2384:	d65f03c0 	ret

0000000000002388 <__GP11_TEE_InitRefAttribute>:
__GP11_TEE_InitRefAttribute():
/home/qc2335/optee/optee_os/tee_api_objects.c:454
    2388:	a9bd7bfd 	stp	x29, x30, [sp, #-48]!
    238c:	910003fd 	mov	x29, sp
    2390:	a90153f3 	stp	x19, x20, [sp, #16]
    2394:	2a0103f4 	mov	w20, w1
    2398:	aa0003f3 	mov	x19, x0
/home/qc2335/optee/optee_os/tee_api_objects.c:455
    239c:	d2800301 	mov	x1, #0x18                  	// #24
/home/qc2335/optee/optee_os/tee_api_objects.c:454
    23a0:	a9025bf5 	stp	x21, x22, [sp, #32]
    23a4:	aa0203f6 	mov	x22, x2
    23a8:	2a0303f5 	mov	w21, w3
/home/qc2335/optee/optee_os/tee_api_objects.c:455
    23ac:	940003fc 	bl	339c <__utee_check_out_annotation>
/home/qc2335/optee/optee_os/tee_api_objects.c:457
    23b0:	36e80074 	tbz	w20, #29, 23bc <__GP11_TEE_InitRefAttribute+0x34>
/home/qc2335/optee/optee_os/tee_api_objects.c:458
    23b4:	52800000 	mov	w0, #0x0                   	// #0
    23b8:	9400039b 	bl	3224 <TEE_Panic>
/home/qc2335/optee/optee_os/tee_api_objects.c:459
    23bc:	b9000274 	str	w20, [x19]
/home/qc2335/optee/optee_os/tee_api_objects.c:460
    23c0:	f9000676 	str	x22, [x19, #8]
/home/qc2335/optee/optee_os/tee_api_objects.c:461
    23c4:	b9001275 	str	w21, [x19, #16]
/home/qc2335/optee/optee_os/tee_api_objects.c:462
    23c8:	a94153f3 	ldp	x19, x20, [sp, #16]
    23cc:	a9425bf5 	ldp	x21, x22, [sp, #32]
    23d0:	a8c37bfd 	ldp	x29, x30, [sp], #48
    23d4:	d65f03c0 	ret

00000000000023d8 <TEE_InitValueAttribute>:
TEE_InitValueAttribute():
/home/qc2335/optee/optee_os/tee_api_objects.c:466
    23d8:	a9bd7bfd 	stp	x29, x30, [sp, #-48]!
    23dc:	910003fd 	mov	x29, sp
    23e0:	a90153f3 	stp	x19, x20, [sp, #16]
    23e4:	2a0103f4 	mov	w20, w1
    23e8:	aa0003f3 	mov	x19, x0
/home/qc2335/optee/optee_os/tee_api_objects.c:467
    23ec:	d2800301 	mov	x1, #0x18                  	// #24
/home/qc2335/optee/optee_os/tee_api_objects.c:466
    23f0:	a9025bf5 	stp	x21, x22, [sp, #32]
    23f4:	2a0203f6 	mov	w22, w2
    23f8:	2a0303f5 	mov	w21, w3
/home/qc2335/optee/optee_os/tee_api_objects.c:467
    23fc:	940003e8 	bl	339c <__utee_check_out_annotation>
/home/qc2335/optee/optee_os/tee_api_objects.c:469
    2400:	37e80074 	tbnz	w20, #29, 240c <TEE_InitValueAttribute+0x34>
/home/qc2335/optee/optee_os/tee_api_objects.c:470
    2404:	52800000 	mov	w0, #0x0                   	// #0
    2408:	94000387 	bl	3224 <TEE_Panic>
/home/qc2335/optee/optee_os/tee_api_objects.c:471
    240c:	b9000274 	str	w20, [x19]
/home/qc2335/optee/optee_os/tee_api_objects.c:473
    2410:	29015676 	stp	w22, w21, [x19, #8]
/home/qc2335/optee/optee_os/tee_api_objects.c:474
    2414:	a94153f3 	ldp	x19, x20, [sp, #16]
    2418:	a9425bf5 	ldp	x21, x22, [sp, #32]
    241c:	a8c37bfd 	ldp	x29, x30, [sp], #48
    2420:	d65f03c0 	ret

0000000000002424 <__GP11_TEE_InitValueAttribute>:
__GP11_TEE_InitValueAttribute():
/home/qc2335/optee/optee_os/tee_api_objects.c:479
    2424:	a9bd7bfd 	stp	x29, x30, [sp, #-48]!
    2428:	910003fd 	mov	x29, sp
    242c:	a90153f3 	stp	x19, x20, [sp, #16]
    2430:	2a0103f4 	mov	w20, w1
    2434:	aa0003f3 	mov	x19, x0
/home/qc2335/optee/optee_os/tee_api_objects.c:480
    2438:	d2800301 	mov	x1, #0x18                  	// #24
/home/qc2335/optee/optee_os/tee_api_objects.c:479
    243c:	a9025bf5 	stp	x21, x22, [sp, #32]
    2440:	2a0203f6 	mov	w22, w2
    2444:	2a0303f5 	mov	w21, w3
/home/qc2335/optee/optee_os/tee_api_objects.c:480
    2448:	940003d5 	bl	339c <__utee_check_out_annotation>
/home/qc2335/optee/optee_os/tee_api_objects.c:482
    244c:	37e80074 	tbnz	w20, #29, 2458 <__GP11_TEE_InitValueAttribute+0x34>
/home/qc2335/optee/optee_os/tee_api_objects.c:483
    2450:	52800000 	mov	w0, #0x0                   	// #0
    2454:	94000374 	bl	3224 <TEE_Panic>
/home/qc2335/optee/optee_os/tee_api_objects.c:484
    2458:	b9000274 	str	w20, [x19]
/home/qc2335/optee/optee_os/tee_api_objects.c:486
    245c:	29015676 	stp	w22, w21, [x19, #8]
/home/qc2335/optee/optee_os/tee_api_objects.c:487
    2460:	a94153f3 	ldp	x19, x20, [sp, #16]
    2464:	a9425bf5 	ldp	x21, x22, [sp, #32]
    2468:	a8c37bfd 	ldp	x29, x30, [sp], #48
    246c:	d65f03c0 	ret

0000000000002470 <TEE_CopyObjectAttributes1>:
TEE_CopyObjectAttributes1():
/home/qc2335/optee/optee_os/tee_api_objects.c:512
    2470:	a9b87bfd 	stp	x29, x30, [sp, #-128]!
    2474:	900000c2 	adrp	x2, 1a000 <_DYNAMIC>
    2478:	910003fd 	mov	x29, sp
    247c:	f9409842 	ldr	x2, [x2, #304]
    2480:	a90153f3 	stp	x19, x20, [sp, #16]
    2484:	aa0103f4 	mov	x20, x1
    2488:	f90013f5 	str	x21, [sp, #32]
    248c:	aa0003f5 	mov	x21, x0
    2490:	f9400041 	ldr	x1, [x2]
    2494:	f9003fe1 	str	x1, [sp, #120]
    2498:	d2800001 	mov	x1, #0x0                   	// #0
/home/qc2335/optee/optee_os/tee_api_objects.c:513
    249c:	a903ffff 	stp	xzr, xzr, [sp, #56]
/home/qc2335/optee/optee_os/tee_api_objects.c:517
    24a0:	9100e3e1 	add	x1, sp, #0x38
/home/qc2335/optee/optee_os/tee_api_objects.c:513
    24a4:	f90027ff 	str	xzr, [sp, #72]
    24a8:	b90053ff 	str	wzr, [sp, #80]
/home/qc2335/optee/optee_os/tee_api_objects.c:514
    24ac:	a905ffff 	stp	xzr, xzr, [sp, #88]
    24b0:	f90037ff 	str	xzr, [sp, #104]
    24b4:	b90073ff 	str	wzr, [sp, #112]
/home/qc2335/optee/optee_os/tee_api_objects.c:517
    24b8:	94000673 	bl	3e84 <_utee_cryp_obj_get_info>
    24bc:	2a0003f3 	mov	w19, w0
/home/qc2335/optee/optee_os/tee_api_objects.c:518
    24c0:	350002a0 	cbnz	w0, 2514 <TEE_CopyObjectAttributes1+0xa4>
/home/qc2335/optee/optee_os/tee_api_objects.c:521
    24c4:	910163e1 	add	x1, sp, #0x58
    24c8:	aa1403e0 	mov	x0, x20
    24cc:	9400066e 	bl	3e84 <_utee_cryp_obj_get_info>
    24d0:	2a0003f3 	mov	w19, w0
/home/qc2335/optee/optee_os/tee_api_objects.c:522
    24d4:	35000200 	cbnz	w0, 2514 <TEE_CopyObjectAttributes1+0xa4>
/home/qc2335/optee/optee_os/tee_api_objects.c:525
    24d8:	b94073e1 	ldr	w1, [sp, #112]
    24dc:	37880041 	tbnz	w1, #17, 24e4 <TEE_CopyObjectAttributes1+0x74>
/home/qc2335/optee/optee_os/tee_api_objects.c:526
    24e0:	94000351 	bl	3224 <TEE_Panic>
/home/qc2335/optee/optee_os/tee_api_objects.c:528
    24e4:	b94053e0 	ldr	w0, [sp, #80]
    24e8:	36800060 	tbz	w0, #16, 24f4 <TEE_CopyObjectAttributes1+0x84>
/home/qc2335/optee/optee_os/tee_api_objects.c:529
    24ec:	52800000 	mov	w0, #0x0                   	// #0
    24f0:	9400034d 	bl	3224 <TEE_Panic>
/home/qc2335/optee/optee_os/tee_api_objects.c:531
    24f4:	b94053e0 	ldr	w0, [sp, #80]
    24f8:	36880060 	tbz	w0, #17, 2504 <TEE_CopyObjectAttributes1+0x94>
/home/qc2335/optee/optee_os/tee_api_objects.c:532
    24fc:	52800000 	mov	w0, #0x0                   	// #0
    2500:	94000349 	bl	3224 <TEE_Panic>
/home/qc2335/optee/optee_os/tee_api_objects.c:534
    2504:	aa1403e1 	mov	x1, x20
    2508:	aa1503e0 	mov	x0, x21
    250c:	94000673 	bl	3ed8 <_utee_cryp_obj_copy>
    2510:	2a0003f3 	mov	w19, w0
/home/qc2335/optee/optee_os/tee_api_objects.c:539
    2514:	121e7a60 	and	w0, w19, #0xfffffffd
/home/qc2335/optee/optee_os/tee_api_objects.c:538
    2518:	7100027f 	cmp	w19, #0x0
    251c:	52800021 	mov	w1, #0x1                   	// #1
    2520:	72be0201 	movk	w1, #0xf010, lsl #16
    2524:	7a411004 	ccmp	w0, w1, #0x4, ne  // ne = any
    2528:	54000060 	b.eq	2534 <TEE_CopyObjectAttributes1+0xc4>  // b.none
/home/qc2335/optee/optee_os/tee_api_objects.c:541
    252c:	2a1303e0 	mov	w0, w19
    2530:	9400033d 	bl	3224 <TEE_Panic>
/home/qc2335/optee/optee_os/tee_api_objects.c:544
    2534:	900000c2 	adrp	x2, 1a000 <_DYNAMIC>
    2538:	f9409842 	ldr	x2, [x2, #304]
    253c:	f9403fe0 	ldr	x0, [sp, #120]
    2540:	f9400041 	ldr	x1, [x2]
    2544:	eb010000 	subs	x0, x0, x1
    2548:	d2800001 	mov	x1, #0x0                   	// #0
    254c:	54000040 	b.eq	2554 <TEE_CopyObjectAttributes1+0xe4>  // b.none
    2550:	97fff7bc 	bl	440 <__stack_chk_fail>
    2554:	2a1303e0 	mov	w0, w19
    2558:	a94153f3 	ldp	x19, x20, [sp, #16]
    255c:	f94013f5 	ldr	x21, [sp, #32]
    2560:	a8c87bfd 	ldp	x29, x30, [sp], #128
    2564:	d65f03c0 	ret

0000000000002568 <TEE_CopyObjectAttributes>:
TEE_CopyObjectAttributes():
/home/qc2335/optee/optee_os/tee_api_objects.c:497
    2568:	a9bb7bfd 	stp	x29, x30, [sp, #-80]!
    256c:	900000c2 	adrp	x2, 1a000 <_DYNAMIC>
    2570:	910003fd 	mov	x29, sp
    2574:	f9409842 	ldr	x2, [x2, #304]
    2578:	a90153f3 	stp	x19, x20, [sp, #16]
    257c:	aa0103f3 	mov	x19, x1
    2580:	aa0003f4 	mov	x20, x0
    2584:	f9400040 	ldr	x0, [x2]
    2588:	f90027e0 	str	x0, [sp, #72]
    258c:	d2800000 	mov	x0, #0x0                   	// #0
/home/qc2335/optee/optee_os/tee_api_objects.c:501
    2590:	9100a3e1 	add	x1, sp, #0x28
    2594:	aa1303e0 	mov	x0, x19
/home/qc2335/optee/optee_os/tee_api_objects.c:498
    2598:	a902ffff 	stp	xzr, xzr, [sp, #40]
    259c:	f9001fff 	str	xzr, [sp, #56]
    25a0:	b90043ff 	str	wzr, [sp, #64]
/home/qc2335/optee/optee_os/tee_api_objects.c:501
    25a4:	94000638 	bl	3e84 <_utee_cryp_obj_get_info>
/home/qc2335/optee/optee_os/tee_api_objects.c:502
    25a8:	b9402be1 	ldr	w1, [sp, #40]
    25ac:	528017c0 	mov	w0, #0xbe                  	// #190
    25b0:	72b40000 	movk	w0, #0xa000, lsl #16
    25b4:	6b00003f 	cmp	w1, w0
    25b8:	540000c0 	b.eq	25d0 <TEE_CopyObjectAttributes+0x68>  // b.none
/home/qc2335/optee/optee_os/tee_api_objects.c:505
    25bc:	aa1303e1 	mov	x1, x19
    25c0:	aa1403e0 	mov	x0, x20
    25c4:	97ffffab 	bl	2470 <TEE_CopyObjectAttributes1>
/home/qc2335/optee/optee_os/tee_api_objects.c:506
    25c8:	34000040 	cbz	w0, 25d0 <TEE_CopyObjectAttributes+0x68>
/home/qc2335/optee/optee_os/tee_api_objects.c:507
    25cc:	94000316 	bl	3224 <TEE_Panic>
/home/qc2335/optee/optee_os/tee_api_objects.c:508
    25d0:	900000c2 	adrp	x2, 1a000 <_DYNAMIC>
    25d4:	f9409842 	ldr	x2, [x2, #304]
    25d8:	f94027e0 	ldr	x0, [sp, #72]
    25dc:	f9400041 	ldr	x1, [x2]
    25e0:	eb010000 	subs	x0, x0, x1
    25e4:	d2800001 	mov	x1, #0x0                   	// #0
    25e8:	54000040 	b.eq	25f0 <TEE_CopyObjectAttributes+0x88>  // b.none
    25ec:	97fff795 	bl	440 <__stack_chk_fail>
    25f0:	a94153f3 	ldp	x19, x20, [sp, #16]
    25f4:	a8c57bfd 	ldp	x29, x30, [sp], #80
    25f8:	d65f03c0 	ret

00000000000025fc <TEE_GenerateKey>:
TEE_GenerateKey():
/home/qc2335/optee/optee_os/tee_api_objects.c:548
    25fc:	a9bb7bfd 	stp	x29, x30, [sp, #-80]!
    2600:	900000c4 	adrp	x4, 1a000 <_DYNAMIC>
    2604:	910003fd 	mov	x29, sp
    2608:	f9409884 	ldr	x4, [x4, #304]
    260c:	a90153f3 	stp	x19, x20, [sp, #16]
    2610:	aa0203f4 	mov	x20, x2
    2614:	a9025bf5 	stp	x21, x22, [sp, #32]
    2618:	aa0003f5 	mov	x21, x0
    261c:	2a0103f6 	mov	w22, w1
    2620:	a90363f7 	stp	x23, x24, [sp, #48]
    2624:	2a0303f8 	mov	w24, w3
/home/qc2335/optee/optee_os/tee_api_objects.c:552
    2628:	aa1803e1 	mov	x1, x24
/home/qc2335/optee/optee_os/tee_api_objects.c:548
    262c:	f9400080 	ldr	x0, [x4]
    2630:	f90027a0 	str	x0, [x29, #72]
    2634:	d2800000 	mov	x0, #0x0                   	// #0
/home/qc2335/optee/optee_os/tee_api_objects.c:550
    2638:	52800304 	mov	w4, #0x18                  	// #24
/home/qc2335/optee/optee_os/tee_api_objects.c:552
    263c:	aa0203e0 	mov	x0, x2
/home/qc2335/optee/optee_os/tee_api_objects.c:550
    2640:	9ba47f04 	umull	x4, w24, w4
    2644:	91003c84 	add	x4, x4, #0xf
    2648:	927c8484 	and	x4, x4, #0x3ffffffff0
    264c:	cb2463ff 	sub	sp, sp, x4
    2650:	910003f7 	mov	x23, sp
/home/qc2335/optee/optee_os/tee_api_objects.c:552
    2654:	9400035a 	bl	33bc <__utee_check_attr_in_annotation>
/home/qc2335/optee/optee_os/tee_api_objects.c:554
    2658:	2a1803e2 	mov	w2, w24
    265c:	aa1403e1 	mov	x1, x20
    2660:	aa1703e0 	mov	x0, x23
    2664:	97fffc58 	bl	17c4 <__utee_from_attr>
/home/qc2335/optee/optee_os/tee_api_objects.c:555
    2668:	2a1603e1 	mov	w1, w22
    266c:	aa1803e3 	mov	x3, x24
    2670:	aa1703e2 	mov	x2, x23
    2674:	aa1503e0 	mov	x0, x21
    2678:	9400065d 	bl	3fec <_utee_cryp_obj_generate_key>
/home/qc2335/optee/optee_os/tee_api_objects.c:558
    267c:	7100001f 	cmp	w0, #0x0
    2680:	129fff21 	mov	w1, #0xffff0006            	// #-65530
/home/qc2335/optee/optee_os/tee_api_objects.c:555
    2684:	2a0003f3 	mov	w19, w0
/home/qc2335/optee/optee_os/tee_api_objects.c:558
    2688:	7a411004 	ccmp	w0, w1, #0x4, ne  // ne = any
    268c:	54000040 	b.eq	2694 <TEE_GenerateKey+0x98>  // b.none
/home/qc2335/optee/optee_os/tee_api_objects.c:559
    2690:	940002e5 	bl	3224 <TEE_Panic>
/home/qc2335/optee/optee_os/tee_api_objects.c:562
    2694:	900000c4 	adrp	x4, 1a000 <_DYNAMIC>
    2698:	f9409884 	ldr	x4, [x4, #304]
    269c:	f94027a0 	ldr	x0, [x29, #72]
    26a0:	f9400081 	ldr	x1, [x4]
    26a4:	eb010000 	subs	x0, x0, x1
    26a8:	d2800001 	mov	x1, #0x0                   	// #0
    26ac:	54000040 	b.eq	26b4 <TEE_GenerateKey+0xb8>  // b.none
    26b0:	97fff764 	bl	440 <__stack_chk_fail>
    26b4:	910003bf 	mov	sp, x29
    26b8:	2a1303e0 	mov	w0, w19
    26bc:	a94153f3 	ldp	x19, x20, [sp, #16]
    26c0:	a9425bf5 	ldp	x21, x22, [sp, #32]
    26c4:	a94363f7 	ldp	x23, x24, [sp, #48]
    26c8:	a8c57bfd 	ldp	x29, x30, [sp], #80
    26cc:	d65f03c0 	ret

00000000000026d0 <__GP11_TEE_GenerateKey>:
__GP11_TEE_GenerateKey():
/home/qc2335/optee/optee_os/tee_api_objects.c:567
    26d0:	a9bb7bfd 	stp	x29, x30, [sp, #-80]!
    26d4:	900000c4 	adrp	x4, 1a000 <_DYNAMIC>
    26d8:	910003fd 	mov	x29, sp
    26dc:	f9409884 	ldr	x4, [x4, #304]
    26e0:	a90153f3 	stp	x19, x20, [sp, #16]
    26e4:	aa0203f4 	mov	x20, x2
    26e8:	a9025bf5 	stp	x21, x22, [sp, #32]
    26ec:	aa0003f5 	mov	x21, x0
    26f0:	2a0103f6 	mov	w22, w1
    26f4:	a90363f7 	stp	x23, x24, [sp, #48]
    26f8:	2a0303f8 	mov	w24, w3
/home/qc2335/optee/optee_os/tee_api_objects.c:571
    26fc:	aa1803e1 	mov	x1, x24
/home/qc2335/optee/optee_os/tee_api_objects.c:567
    2700:	f9400080 	ldr	x0, [x4]
    2704:	f90027a0 	str	x0, [x29, #72]
    2708:	d2800000 	mov	x0, #0x0                   	// #0
/home/qc2335/optee/optee_os/tee_api_objects.c:569
    270c:	52800304 	mov	w4, #0x18                  	// #24
/home/qc2335/optee/optee_os/tee_api_objects.c:571
    2710:	aa0203e0 	mov	x0, x2
/home/qc2335/optee/optee_os/tee_api_objects.c:569
    2714:	9ba47f04 	umull	x4, w24, w4
    2718:	91003c84 	add	x4, x4, #0xf
    271c:	927c8484 	and	x4, x4, #0x3ffffffff0
    2720:	cb2463ff 	sub	sp, sp, x4
    2724:	910003f7 	mov	x23, sp
/home/qc2335/optee/optee_os/tee_api_objects.c:571
    2728:	9400032e 	bl	33e0 <__utee_check_gp11_attr_in_annotation>
/home/qc2335/optee/optee_os/tee_api_objects.c:573
    272c:	2a1803e2 	mov	w2, w24
    2730:	aa1403e1 	mov	x1, x20
    2734:	aa1703e0 	mov	x0, x23
    2738:	97fffc37 	bl	1814 <__utee_from_gp11_attr>
/home/qc2335/optee/optee_os/tee_api_objects.c:574
    273c:	2a1603e1 	mov	w1, w22
    2740:	aa1803e3 	mov	x3, x24
    2744:	aa1703e2 	mov	x2, x23
    2748:	aa1503e0 	mov	x0, x21
    274c:	94000628 	bl	3fec <_utee_cryp_obj_generate_key>
/home/qc2335/optee/optee_os/tee_api_objects.c:577
    2750:	7100001f 	cmp	w0, #0x0
    2754:	129fff21 	mov	w1, #0xffff0006            	// #-65530
/home/qc2335/optee/optee_os/tee_api_objects.c:574
    2758:	2a0003f3 	mov	w19, w0
/home/qc2335/optee/optee_os/tee_api_objects.c:577
    275c:	7a411004 	ccmp	w0, w1, #0x4, ne  // ne = any
    2760:	54000040 	b.eq	2768 <__GP11_TEE_GenerateKey+0x98>  // b.none
/home/qc2335/optee/optee_os/tee_api_objects.c:578
    2764:	940002b0 	bl	3224 <TEE_Panic>
/home/qc2335/optee/optee_os/tee_api_objects.c:581
    2768:	900000c4 	adrp	x4, 1a000 <_DYNAMIC>
    276c:	f9409884 	ldr	x4, [x4, #304]
    2770:	f94027a0 	ldr	x0, [x29, #72]
    2774:	f9400081 	ldr	x1, [x4]
    2778:	eb010000 	subs	x0, x0, x1
    277c:	d2800001 	mov	x1, #0x0                   	// #0
    2780:	54000040 	b.eq	2788 <__GP11_TEE_GenerateKey+0xb8>  // b.none
    2784:	97fff72f 	bl	440 <__stack_chk_fail>
    2788:	910003bf 	mov	sp, x29
    278c:	2a1303e0 	mov	w0, w19
    2790:	a94153f3 	ldp	x19, x20, [sp, #16]
    2794:	a9425bf5 	ldp	x21, x22, [sp, #32]
    2798:	a94363f7 	ldp	x23, x24, [sp, #48]
    279c:	a8c57bfd 	ldp	x29, x30, [sp], #80
    27a0:	d65f03c0 	ret

00000000000027a4 <TEE_OpenPersistentObject>:
TEE_OpenPersistentObject():
/home/qc2335/optee/optee_os/tee_api_objects.c:588
    27a4:	a9bb7bfd 	stp	x29, x30, [sp, #-80]!
    27a8:	900000c5 	adrp	x5, 1a000 <_DYNAMIC>
    27ac:	910003fd 	mov	x29, sp
    27b0:	f94098a5 	ldr	x5, [x5, #304]
    27b4:	a90153f3 	stp	x19, x20, [sp, #16]
    27b8:	2a0003f3 	mov	w19, w0
    27bc:	a9025bf5 	stp	x21, x22, [sp, #32]
    27c0:	aa0403f4 	mov	x20, x4
    27c4:	aa0103f5 	mov	x21, x1
    27c8:	f9001bf7 	str	x23, [sp, #48]
    27cc:	aa0203f6 	mov	x22, x2
    27d0:	2a0303f7 	mov	w23, w3
/home/qc2335/optee/optee_os/tee_api_objects.c:592
    27d4:	d2800101 	mov	x1, #0x8                   	// #8
/home/qc2335/optee/optee_os/tee_api_objects.c:588
    27d8:	f94000a0 	ldr	x0, [x5]
    27dc:	f90027e0 	str	x0, [sp, #72]
    27e0:	d2800000 	mov	x0, #0x0                   	// #0
/home/qc2335/optee/optee_os/tee_api_objects.c:592
    27e4:	aa0403e0 	mov	x0, x4
    27e8:	940002ed 	bl	339c <__utee_check_out_annotation>
/home/qc2335/optee/optee_os/tee_api_objects.c:594
    27ec:	2a1303e0 	mov	w0, w19
    27f0:	910113e4 	add	x4, sp, #0x44
    27f4:	2a1703e3 	mov	w3, w23
    27f8:	aa1603e2 	mov	x2, x22
    27fc:	aa1503e1 	mov	x1, x21
    2800:	940005d4 	bl	3f50 <_utee_storage_obj_open>
    2804:	2a0003f3 	mov	w19, w0
/home/qc2335/optee/optee_os/tee_api_objects.c:596
    2808:	35000160 	cbnz	w0, 2834 <TEE_OpenPersistentObject+0x90>
/home/qc2335/optee/optee_os/tee_api_objects.c:597
    280c:	b94047e0 	ldr	w0, [sp, #68]
/home/qc2335/optee/optee_os/tee_api_objects.c:611
    2810:	900000c5 	adrp	x5, 1a000 <_DYNAMIC>
/home/qc2335/optee/optee_os/tee_api_objects.c:597
    2814:	f9000280 	str	x0, [x20]
/home/qc2335/optee/optee_os/tee_api_objects.c:611
    2818:	f94098a5 	ldr	x5, [x5, #304]
    281c:	f94027e0 	ldr	x0, [sp, #72]
    2820:	f94000a1 	ldr	x1, [x5]
    2824:	eb010000 	subs	x0, x0, x1
    2828:	d2800001 	mov	x1, #0x0                   	// #0
    282c:	54000220 	b.eq	2870 <TEE_OpenPersistentObject+0xcc>  // b.none
    2830:	97fff704 	bl	440 <__stack_chk_fail>
/home/qc2335/optee/optee_os/tee_api_objects.c:599
    2834:	121d7802 	and	w2, w0, #0xfffffffb
    2838:	129ffee1 	mov	w1, #0xffff0008            	// #-65528
    283c:	6b01005f 	cmp	w2, w1
    2840:	54000140 	b.eq	2868 <TEE_OpenPersistentObject+0xc4>  // b.none
/home/qc2335/optee/optee_os/tee_api_objects.c:601
    2844:	129fff81 	mov	w1, #0xffff0003            	// #-65533
    2848:	6b01001f 	cmp	w0, w1
    284c:	540000e0 	b.eq	2868 <TEE_OpenPersistentObject+0xc4>  // b.none
/home/qc2335/optee/optee_os/tee_api_objects.c:603
    2850:	52800021 	mov	w1, #0x1                   	// #1
    2854:	121e7802 	and	w2, w0, #0xfffffffd
    2858:	72be0201 	movk	w1, #0xf010, lsl #16
    285c:	6b01005f 	cmp	w2, w1
    2860:	54000040 	b.eq	2868 <TEE_OpenPersistentObject+0xc4>  // b.none
/home/qc2335/optee/optee_os/tee_api_objects.c:605
    2864:	94000270 	bl	3224 <TEE_Panic>
/home/qc2335/optee/optee_os/tee_api_objects.c:588
    2868:	d2800000 	mov	x0, #0x0                   	// #0
    286c:	17ffffe9 	b	2810 <TEE_OpenPersistentObject+0x6c>
/home/qc2335/optee/optee_os/tee_api_objects.c:611
    2870:	2a1303e0 	mov	w0, w19
    2874:	a94153f3 	ldp	x19, x20, [sp, #16]
    2878:	a9425bf5 	ldp	x21, x22, [sp, #32]
    287c:	f9401bf7 	ldr	x23, [sp, #48]
    2880:	a8c57bfd 	ldp	x29, x30, [sp], #80
    2884:	d65f03c0 	ret

0000000000002888 <__GP11_TEE_OpenPersistentObject>:
__GP11_TEE_OpenPersistentObject():
/home/qc2335/optee/optee_os/tee_api_objects.c:618
    2888:	2a0203e2 	mov	w2, w2
    288c:	17ffffc6 	b	27a4 <TEE_OpenPersistentObject>

0000000000002890 <TEE_CreatePersistentObject>:
TEE_CreatePersistentObject():
/home/qc2335/optee/optee_os/tee_api_objects.c:628
    2890:	a9ba7bfd 	stp	x29, x30, [sp, #-96]!
    2894:	900000c8 	adrp	x8, 1a000 <_DYNAMIC>
    2898:	910003fd 	mov	x29, sp
    289c:	f9409908 	ldr	x8, [x8, #304]
    28a0:	a90153f3 	stp	x19, x20, [sp, #16]
    28a4:	2a0003f3 	mov	w19, w0
    28a8:	a9025bf5 	stp	x21, x22, [sp, #32]
    28ac:	aa0703f4 	mov	x20, x7
    28b0:	aa0103f5 	mov	x21, x1
    28b4:	a90363f7 	stp	x23, x24, [sp, #48]
    28b8:	aa0203f6 	mov	x22, x2
    28bc:	2a0303f7 	mov	w23, w3
    28c0:	a9046bf9 	stp	x25, x26, [sp, #64]
    28c4:	aa0403f8 	mov	x24, x4
    28c8:	aa0503f9 	mov	x25, x5
    28cc:	f9400100 	ldr	x0, [x8]
    28d0:	f9002fe0 	str	x0, [sp, #88]
    28d4:	d2800000 	mov	x0, #0x0                   	// #0
/home/qc2335/optee/optee_os/tee_api_objects.c:631
    28d8:	b90057ff 	str	wzr, [sp, #84]
/home/qc2335/optee/optee_os/tee_api_objects.c:628
    28dc:	aa0603fa 	mov	x26, x6
/home/qc2335/optee/optee_os/tee_api_objects.c:633
    28e0:	b4000687 	cbz	x7, 29b0 <TEE_CreatePersistentObject+0x120>
/home/qc2335/optee/optee_os/tee_api_objects.c:634
    28e4:	aa0703e0 	mov	x0, x7
    28e8:	d2800101 	mov	x1, #0x8                   	// #8
    28ec:	940002ac 	bl	339c <__utee_check_out_annotation>
/home/qc2335/optee/optee_os/tee_api_objects.c:635
    28f0:	910153e7 	add	x7, sp, #0x54
/home/qc2335/optee/optee_os/tee_api_objects.c:638
    28f4:	aa1603e2 	mov	x2, x22
    28f8:	2a1303e0 	mov	w0, w19
    28fc:	aa1a03e6 	mov	x6, x26
    2900:	aa1903e5 	mov	x5, x25
    2904:	aa1803e4 	mov	x4, x24
    2908:	2a1703e3 	mov	w3, w23
    290c:	aa1503e1 	mov	x1, x21
    2910:	94000593 	bl	3f5c <_utee_storage_obj_create>
/home/qc2335/optee/optee_os/tee_api_objects.c:642
    2914:	f100029f 	cmp	x20, #0x0
/home/qc2335/optee/optee_os/tee_api_objects.c:638
    2918:	2a0003f3 	mov	w19, w0
/home/qc2335/optee/optee_os/tee_api_objects.c:642
    291c:	1a9f07f6 	cset	w22, ne  // ne = any
    2920:	7100001f 	cmp	w0, #0x0
    2924:	7a400ac4 	ccmp	w22, #0x0, #0x4, eq  // eq = none
    2928:	54000060 	b.eq	2934 <TEE_CreatePersistentObject+0xa4>  // b.none
/home/qc2335/optee/optee_os/tee_api_objects.c:643
    292c:	b94057e0 	ldr	w0, [sp, #84]
    2930:	f9000280 	str	x0, [x20]
/home/qc2335/optee/optee_os/tee_api_objects.c:645
    2934:	7100027f 	cmp	w19, #0x0
/home/qc2335/optee/optee_os/tee_api_objects.c:646
    2938:	121d7a60 	and	w0, w19, #0xfffffffb
/home/qc2335/optee/optee_os/tee_api_objects.c:645
    293c:	1a9f07f5 	cset	w21, ne  // ne = any
    2940:	129ffee1 	mov	w1, #0xffff0008            	// #-65528
    2944:	710002bf 	cmp	w21, #0x0
    2948:	7a411004 	ccmp	w0, w1, #0x4, ne  // ne = any
    294c:	540001a0 	b.eq	2980 <TEE_CreatePersistentObject+0xf0>  // b.none
/home/qc2335/optee/optee_os/tee_api_objects.c:647
    2950:	129fff80 	mov	w0, #0xffff0003            	// #-65533
    2954:	6b00027f 	cmp	w19, w0
    2958:	54000140 	b.eq	2980 <TEE_CreatePersistentObject+0xf0>  // b.none
/home/qc2335/optee/optee_os/tee_api_objects.c:650
    295c:	121e7a61 	and	w1, w19, #0xfffffffd
/home/qc2335/optee/optee_os/tee_api_objects.c:649
    2960:	52800020 	mov	w0, #0x1                   	// #1
    2964:	72be0200 	movk	w0, #0xf010, lsl #16
    2968:	6b00003f 	cmp	w1, w0
    296c:	1299f7c0 	mov	w0, #0xffff3041            	// #-53183
    2970:	7a401264 	ccmp	w19, w0, #0x4, ne  // ne = any
    2974:	54000060 	b.eq	2980 <TEE_CreatePersistentObject+0xf0>  // b.none
/home/qc2335/optee/optee_os/tee_api_objects.c:652
    2978:	2a1303e0 	mov	w0, w19
    297c:	9400022a 	bl	3224 <TEE_Panic>
/home/qc2335/optee/optee_os/tee_api_objects.c:654
    2980:	710002df 	cmp	w22, #0x0
    2984:	7a401aa4 	ccmp	w21, #0x0, #0x4, ne  // ne = any
    2988:	54000040 	b.eq	2990 <TEE_CreatePersistentObject+0x100>  // b.none
/home/qc2335/optee/optee_os/tee_api_objects.c:655
    298c:	f900029f 	str	xzr, [x20]
/home/qc2335/optee/optee_os/tee_api_objects.c:658
    2990:	900000c8 	adrp	x8, 1a000 <_DYNAMIC>
    2994:	f9409908 	ldr	x8, [x8, #304]
    2998:	f9402fe0 	ldr	x0, [sp, #88]
    299c:	f9400101 	ldr	x1, [x8]
    29a0:	eb010000 	subs	x0, x0, x1
    29a4:	d2800001 	mov	x1, #0x0                   	// #0
    29a8:	54000080 	b.eq	29b8 <TEE_CreatePersistentObject+0x128>  // b.none
    29ac:	97fff6a5 	bl	440 <__stack_chk_fail>
/home/qc2335/optee/optee_os/tee_api_objects.c:630
    29b0:	d2800007 	mov	x7, #0x0                   	// #0
    29b4:	17ffffd0 	b	28f4 <TEE_CreatePersistentObject+0x64>
/home/qc2335/optee/optee_os/tee_api_objects.c:658
    29b8:	2a1303e0 	mov	w0, w19
    29bc:	a94153f3 	ldp	x19, x20, [sp, #16]
    29c0:	a9425bf5 	ldp	x21, x22, [sp, #32]
    29c4:	a94363f7 	ldp	x23, x24, [sp, #48]
    29c8:	a9446bf9 	ldp	x25, x26, [sp, #64]
    29cc:	a8c67bfd 	ldp	x29, x30, [sp], #96
    29d0:	d65f03c0 	ret

00000000000029d4 <__GP11_TEE_CreatePersistentObject>:
__GP11_TEE_CreatePersistentObject():
/home/qc2335/optee/optee_os/tee_api_objects.c:668
    29d4:	a9bb7bfd 	stp	x29, x30, [sp, #-80]!
    29d8:	910003fd 	mov	x29, sp
    29dc:	a90153f3 	stp	x19, x20, [sp, #16]
    29e0:	2a0003f4 	mov	w20, w0
    29e4:	aa0703f3 	mov	x19, x7
/home/qc2335/optee/optee_os/tee_api_objects.c:669
    29e8:	aa0703e0 	mov	x0, x7
/home/qc2335/optee/optee_os/tee_api_objects.c:668
    29ec:	a9025bf5 	stp	x21, x22, [sp, #32]
    29f0:	aa0103f5 	mov	x21, x1
    29f4:	2a0203f6 	mov	w22, w2
/home/qc2335/optee/optee_os/tee_api_objects.c:669
    29f8:	d2800101 	mov	x1, #0x8                   	// #8
/home/qc2335/optee/optee_os/tee_api_objects.c:668
    29fc:	a90363f7 	stp	x23, x24, [sp, #48]
    2a00:	2a0303f7 	mov	w23, w3
    2a04:	aa0403f8 	mov	x24, x4
    2a08:	a9046bf9 	stp	x25, x26, [sp, #64]
    2a0c:	aa0503f9 	mov	x25, x5
    2a10:	2a0603fa 	mov	w26, w6
/home/qc2335/optee/optee_os/tee_api_objects.c:669
    2a14:	94000262 	bl	339c <__utee_check_out_annotation>
/home/qc2335/optee/optee_os/tee_api_objects.c:671
    2a18:	aa1303e7 	mov	x7, x19
    2a1c:	2a1a03e6 	mov	w6, w26
    2a20:	aa1903e5 	mov	x5, x25
    2a24:	aa1803e4 	mov	x4, x24
    2a28:	2a1703e3 	mov	w3, w23
    2a2c:	2a1603e2 	mov	w2, w22
    2a30:	aa1503e1 	mov	x1, x21
    2a34:	2a1403e0 	mov	w0, w20
/home/qc2335/optee/optee_os/tee_api_objects.c:674
    2a38:	a94153f3 	ldp	x19, x20, [sp, #16]
    2a3c:	a9425bf5 	ldp	x21, x22, [sp, #32]
    2a40:	a94363f7 	ldp	x23, x24, [sp, #48]
    2a44:	a9446bf9 	ldp	x25, x26, [sp, #64]
    2a48:	a8c57bfd 	ldp	x29, x30, [sp], #80
/home/qc2335/optee/optee_os/tee_api_objects.c:671
    2a4c:	17ffff91 	b	2890 <TEE_CreatePersistentObject>

0000000000002a50 <TEE_CloseAndDeletePersistentObject1>:
TEE_CloseAndDeletePersistentObject1():
/home/qc2335/optee/optee_os/tee_api_objects.c:696
    2a50:	a9be7bfd 	stp	x29, x30, [sp, #-32]!
    2a54:	910003fd 	mov	x29, sp
    2a58:	f9000bf3 	str	x19, [sp, #16]
/home/qc2335/optee/optee_os/tee_api_objects.c:699
    2a5c:	b40001a0 	cbz	x0, 2a90 <TEE_CloseAndDeletePersistentObject1+0x40>
/home/qc2335/optee/optee_os/tee_api_objects.c:702
    2a60:	94000542 	bl	3f68 <_utee_storage_obj_del>
/home/qc2335/optee/optee_os/tee_api_objects.c:704
    2a64:	7100001f 	cmp	w0, #0x0
    2a68:	52800061 	mov	w1, #0x3                   	// #3
/home/qc2335/optee/optee_os/tee_api_objects.c:702
    2a6c:	2a0003f3 	mov	w19, w0
/home/qc2335/optee/optee_os/tee_api_objects.c:704
    2a70:	72be0201 	movk	w1, #0xf010, lsl #16
    2a74:	7a411004 	ccmp	w0, w1, #0x4, ne  // ne = any
    2a78:	54000040 	b.eq	2a80 <TEE_CloseAndDeletePersistentObject1+0x30>  // b.none
/home/qc2335/optee/optee_os/tee_api_objects.c:705
    2a7c:	940001ea 	bl	3224 <TEE_Panic>
/home/qc2335/optee/optee_os/tee_api_objects.c:708
    2a80:	2a1303e0 	mov	w0, w19
    2a84:	f9400bf3 	ldr	x19, [sp, #16]
    2a88:	a8c27bfd 	ldp	x29, x30, [sp], #32
    2a8c:	d65f03c0 	ret
/home/qc2335/optee/optee_os/tee_api_objects.c:700
    2a90:	52800013 	mov	w19, #0x0                   	// #0
    2a94:	17fffffb 	b	2a80 <TEE_CloseAndDeletePersistentObject1+0x30>

0000000000002a98 <TEE_CloseAndDeletePersistentObject>:
TEE_CloseAndDeletePersistentObject():
/home/qc2335/optee/optee_os/tee_api_objects.c:686
    2a98:	b4000140 	cbz	x0, 2ac0 <TEE_CloseAndDeletePersistentObject+0x28>
/home/qc2335/optee/optee_os/tee_api_objects.c:683
    2a9c:	a9bf7bfd 	stp	x29, x30, [sp, #-16]!
    2aa0:	910003fd 	mov	x29, sp
/home/qc2335/optee/optee_os/tee_api_objects.c:689
    2aa4:	97ffffeb 	bl	2a50 <TEE_CloseAndDeletePersistentObject1>
/home/qc2335/optee/optee_os/tee_api_objects.c:691
    2aa8:	34000080 	cbz	w0, 2ab8 <TEE_CloseAndDeletePersistentObject+0x20>
/home/qc2335/optee/optee_os/tee_api_objects.c:693
    2aac:	a8c17bfd 	ldp	x29, x30, [sp], #16
/home/qc2335/optee/optee_os/tee_api_objects.c:692
    2ab0:	52800000 	mov	w0, #0x0                   	// #0
    2ab4:	140001dc 	b	3224 <TEE_Panic>
/home/qc2335/optee/optee_os/tee_api_objects.c:693
    2ab8:	a8c17bfd 	ldp	x29, x30, [sp], #16
    2abc:	d65f03c0 	ret
    2ac0:	d65f03c0 	ret

0000000000002ac4 <TEE_RenamePersistentObject>:
TEE_RenamePersistentObject():
/home/qc2335/optee/optee_os/tee_api_objects.c:714
    2ac4:	a9be7bfd 	stp	x29, x30, [sp, #-32]!
    2ac8:	910003fd 	mov	x29, sp
    2acc:	f9000bf3 	str	x19, [sp, #16]
/home/qc2335/optee/optee_os/tee_api_objects.c:717
    2ad0:	b4000240 	cbz	x0, 2b18 <TEE_RenamePersistentObject+0x54>
/home/qc2335/optee/optee_os/tee_api_objects.c:722
    2ad4:	94000528 	bl	3f74 <_utee_storage_obj_rename>
    2ad8:	2a0003f3 	mov	w19, w0
/home/qc2335/optee/optee_os/tee_api_objects.c:726
    2adc:	7100027f 	cmp	w19, #0x0
    2ae0:	129fff80 	mov	w0, #0xffff0003            	// #-65533
    2ae4:	7a401264 	ccmp	w19, w0, #0x4, ne  // ne = any
    2ae8:	54000100 	b.eq	2b08 <TEE_RenamePersistentObject+0x44>  // b.none
/home/qc2335/optee/optee_os/tee_api_objects.c:728
    2aec:	52800020 	mov	w0, #0x1                   	// #1
    2af0:	121e7a61 	and	w1, w19, #0xfffffffd
    2af4:	72be0200 	movk	w0, #0xf010, lsl #16
    2af8:	6b00003f 	cmp	w1, w0
    2afc:	54000060 	b.eq	2b08 <TEE_RenamePersistentObject+0x44>  // b.none
/home/qc2335/optee/optee_os/tee_api_objects.c:730
    2b00:	2a1303e0 	mov	w0, w19
    2b04:	940001c8 	bl	3224 <TEE_Panic>
/home/qc2335/optee/optee_os/tee_api_objects.c:733
    2b08:	2a1303e0 	mov	w0, w19
    2b0c:	f9400bf3 	ldr	x19, [sp, #16]
    2b10:	a8c27bfd 	ldp	x29, x30, [sp], #32
    2b14:	d65f03c0 	ret
/home/qc2335/optee/optee_os/tee_api_objects.c:718
    2b18:	129ffef3 	mov	w19, #0xffff0008            	// #-65528
    2b1c:	17fffff0 	b	2adc <TEE_RenamePersistentObject+0x18>

0000000000002b20 <__GP11_TEE_RenamePersistentObject>:
__GP11_TEE_RenamePersistentObject():
/home/qc2335/optee/optee_os/tee_api_objects.c:739
    2b20:	2a0203e2 	mov	w2, w2
    2b24:	17ffffe8 	b	2ac4 <TEE_RenamePersistentObject>

0000000000002b28 <TEE_AllocatePersistentObjectEnumerator>:
TEE_AllocatePersistentObjectEnumerator():
/home/qc2335/optee/optee_os/tee_api_objects.c:744
    2b28:	a9bd7bfd 	stp	x29, x30, [sp, #-48]!
    2b2c:	900000c1 	adrp	x1, 1a000 <_DYNAMIC>
    2b30:	910003fd 	mov	x29, sp
    2b34:	f9409821 	ldr	x1, [x1, #304]
    2b38:	a90153f3 	stp	x19, x20, [sp, #16]
    2b3c:	aa0003f4 	mov	x20, x0
    2b40:	f9400022 	ldr	x2, [x1]
    2b44:	f90017e2 	str	x2, [sp, #40]
    2b48:	d2800002 	mov	x2, #0x0                   	// #0
/home/qc2335/optee/optee_os/tee_api_objects.c:748
    2b4c:	d2800101 	mov	x1, #0x8                   	// #8
    2b50:	94000213 	bl	339c <__utee_check_out_annotation>
/home/qc2335/optee/optee_os/tee_api_objects.c:751
    2b54:	910093e0 	add	x0, sp, #0x24
    2b58:	9400050a 	bl	3f80 <_utee_storage_alloc_enum>
    2b5c:	2a0003f3 	mov	w19, w0
/home/qc2335/optee/optee_os/tee_api_objects.c:753
    2b60:	34000040 	cbz	w0, 2b68 <TEE_AllocatePersistentObjectEnumerator+0x40>
/home/qc2335/optee/optee_os/tee_api_objects.c:754
    2b64:	b90027ff 	str	wzr, [sp, #36]
/home/qc2335/optee/optee_os/tee_api_objects.c:756
    2b68:	b94027e0 	ldr	w0, [sp, #36]
/home/qc2335/optee/optee_os/tee_api_objects.c:758
    2b6c:	7100027f 	cmp	w19, #0x0
/home/qc2335/optee/optee_os/tee_api_objects.c:756
    2b70:	f9000280 	str	x0, [x20]
/home/qc2335/optee/optee_os/tee_api_objects.c:758
    2b74:	129fff80 	mov	w0, #0xffff0003            	// #-65533
    2b78:	7a401264 	ccmp	w19, w0, #0x4, ne  // ne = any
    2b7c:	54000060 	b.eq	2b88 <TEE_AllocatePersistentObjectEnumerator+0x60>  // b.none
/home/qc2335/optee/optee_os/tee_api_objects.c:760
    2b80:	2a1303e0 	mov	w0, w19
    2b84:	940001a8 	bl	3224 <TEE_Panic>
/home/qc2335/optee/optee_os/tee_api_objects.c:763
    2b88:	900000c1 	adrp	x1, 1a000 <_DYNAMIC>
    2b8c:	f9409821 	ldr	x1, [x1, #304]
    2b90:	f94017e0 	ldr	x0, [sp, #40]
    2b94:	f9400022 	ldr	x2, [x1]
    2b98:	eb020000 	subs	x0, x0, x2
    2b9c:	d2800002 	mov	x2, #0x0                   	// #0
    2ba0:	54000040 	b.eq	2ba8 <TEE_AllocatePersistentObjectEnumerator+0x80>  // b.none
    2ba4:	97fff627 	bl	440 <__stack_chk_fail>
    2ba8:	2a1303e0 	mov	w0, w19
    2bac:	a94153f3 	ldp	x19, x20, [sp, #16]
    2bb0:	a8c37bfd 	ldp	x29, x30, [sp], #48
    2bb4:	d65f03c0 	ret

0000000000002bb8 <TEE_FreePersistentObjectEnumerator>:
TEE_FreePersistentObjectEnumerator():
/home/qc2335/optee/optee_os/tee_api_objects.c:769
    2bb8:	b4000120 	cbz	x0, 2bdc <TEE_FreePersistentObjectEnumerator+0x24>
/home/qc2335/optee/optee_os/tee_api_objects.c:766
    2bbc:	a9bf7bfd 	stp	x29, x30, [sp, #-16]!
    2bc0:	910003fd 	mov	x29, sp
/home/qc2335/optee/optee_os/tee_api_objects.c:772
    2bc4:	940004f2 	bl	3f8c <_utee_storage_free_enum>
/home/qc2335/optee/optee_os/tee_api_objects.c:774
    2bc8:	34000060 	cbz	w0, 2bd4 <TEE_FreePersistentObjectEnumerator+0x1c>
/home/qc2335/optee/optee_os/tee_api_objects.c:776
    2bcc:	a8c17bfd 	ldp	x29, x30, [sp], #16
/home/qc2335/optee/optee_os/tee_api_objects.c:775
    2bd0:	14000195 	b	3224 <TEE_Panic>
/home/qc2335/optee/optee_os/tee_api_objects.c:776
    2bd4:	a8c17bfd 	ldp	x29, x30, [sp], #16
    2bd8:	d65f03c0 	ret
    2bdc:	d65f03c0 	ret

0000000000002be0 <TEE_ResetPersistentObjectEnumerator>:
TEE_ResetPersistentObjectEnumerator():
/home/qc2335/optee/optee_os/tee_api_objects.c:782
    2be0:	b4000120 	cbz	x0, 2c04 <TEE_ResetPersistentObjectEnumerator+0x24>
/home/qc2335/optee/optee_os/tee_api_objects.c:779
    2be4:	a9bf7bfd 	stp	x29, x30, [sp, #-16]!
    2be8:	910003fd 	mov	x29, sp
/home/qc2335/optee/optee_os/tee_api_objects.c:785
    2bec:	940004eb 	bl	3f98 <_utee_storage_reset_enum>
/home/qc2335/optee/optee_os/tee_api_objects.c:787
    2bf0:	34000060 	cbz	w0, 2bfc <TEE_ResetPersistentObjectEnumerator+0x1c>
/home/qc2335/optee/optee_os/tee_api_objects.c:789
    2bf4:	a8c17bfd 	ldp	x29, x30, [sp], #16
/home/qc2335/optee/optee_os/tee_api_objects.c:788
    2bf8:	1400018b 	b	3224 <TEE_Panic>
/home/qc2335/optee/optee_os/tee_api_objects.c:789
    2bfc:	a8c17bfd 	ldp	x29, x30, [sp], #16
    2c00:	d65f03c0 	ret
    2c04:	d65f03c0 	ret

0000000000002c08 <TEE_StartPersistentObjectEnumerator>:
TEE_StartPersistentObjectEnumerator():
/home/qc2335/optee/optee_os/tee_api_objects.c:794
    2c08:	a9be7bfd 	stp	x29, x30, [sp, #-32]!
/home/qc2335/optee/optee_os/tee_api_objects.c:797
    2c0c:	2a0103e1 	mov	w1, w1
/home/qc2335/optee/optee_os/tee_api_objects.c:794
    2c10:	910003fd 	mov	x29, sp
    2c14:	f9000bf3 	str	x19, [sp, #16]
/home/qc2335/optee/optee_os/tee_api_objects.c:797
    2c18:	940004e3 	bl	3fa4 <_utee_storage_start_enum>
/home/qc2335/optee/optee_os/tee_api_objects.c:800
    2c1c:	7100001f 	cmp	w0, #0x0
    2c20:	129ffee1 	mov	w1, #0xffff0008            	// #-65528
/home/qc2335/optee/optee_os/tee_api_objects.c:797
    2c24:	2a0003f3 	mov	w19, w0
/home/qc2335/optee/optee_os/tee_api_objects.c:800
    2c28:	7a411004 	ccmp	w0, w1, #0x4, ne  // ne = any
    2c2c:	540000e0 	b.eq	2c48 <TEE_StartPersistentObjectEnumerator+0x40>  // b.none
/home/qc2335/optee/optee_os/tee_api_objects.c:802
    2c30:	52800021 	mov	w1, #0x1                   	// #1
    2c34:	121e7802 	and	w2, w0, #0xfffffffd
    2c38:	72be0201 	movk	w1, #0xf010, lsl #16
    2c3c:	6b01005f 	cmp	w2, w1
    2c40:	54000040 	b.eq	2c48 <TEE_StartPersistentObjectEnumerator+0x40>  // b.none
/home/qc2335/optee/optee_os/tee_api_objects.c:804
    2c44:	94000178 	bl	3224 <TEE_Panic>
/home/qc2335/optee/optee_os/tee_api_objects.c:807
    2c48:	2a1303e0 	mov	w0, w19
    2c4c:	f9400bf3 	ldr	x19, [sp, #16]
    2c50:	a8c27bfd 	ldp	x29, x30, [sp], #32
    2c54:	d65f03c0 	ret

0000000000002c58 <TEE_GetNextPersistentObject>:
TEE_GetNextPersistentObject():
/home/qc2335/optee/optee_os/tee_api_objects.c:812
    2c58:	a9ba7bfd 	stp	x29, x30, [sp, #-96]!
    2c5c:	910003fd 	mov	x29, sp
    2c60:	a90153f3 	stp	x19, x20, [sp, #16]
    2c64:	aa0103f3 	mov	x19, x1
    2c68:	900000c1 	adrp	x1, 1a000 <_DYNAMIC>
    2c6c:	a9025bf5 	stp	x21, x22, [sp, #32]
    2c70:	aa0003f6 	mov	x22, x0
    2c74:	aa0203f4 	mov	x20, x2
    2c78:	f9409821 	ldr	x1, [x1, #304]
    2c7c:	aa0303f5 	mov	x21, x3
    2c80:	f9400020 	ldr	x0, [x1]
    2c84:	f9002fe0 	str	x0, [sp, #88]
    2c88:	d2800000 	mov	x0, #0x0                   	// #0
/home/qc2335/optee/optee_os/tee_api_objects.c:813
    2c8c:	a9037fff 	stp	xzr, xzr, [sp, #48]
    2c90:	a9047fff 	stp	xzr, xzr, [sp, #64]
    2c94:	b90053ff 	str	wzr, [sp, #80]
/home/qc2335/optee/optee_os/tee_api_objects.c:817
    2c98:	b4000093 	cbz	x19, 2ca8 <TEE_GetNextPersistentObject+0x50>
/home/qc2335/optee/optee_os/tee_api_objects.c:818
    2c9c:	aa1303e0 	mov	x0, x19
    2ca0:	d2800501 	mov	x1, #0x28                  	// #40
    2ca4:	940001be 	bl	339c <__utee_check_out_annotation>
/home/qc2335/optee/optee_os/tee_api_objects.c:819
    2ca8:	aa1503e0 	mov	x0, x21
    2cac:	d2800101 	mov	x1, #0x8                   	// #8
    2cb0:	940001bb 	bl	339c <__utee_check_out_annotation>
/home/qc2335/optee/optee_os/tee_api_objects.c:821
    2cb4:	b4000534 	cbz	x20, 2d58 <TEE_GetNextPersistentObject+0x100>
/home/qc2335/optee/optee_os/tee_api_objects.c:826
    2cb8:	f94002a0 	ldr	x0, [x21]
/home/qc2335/optee/optee_os/tee_api_objects.c:827
    2cbc:	aa1403e2 	mov	x2, x20
    2cc0:	9100c3e3 	add	x3, sp, #0x30
    2cc4:	9100e3e1 	add	x1, sp, #0x38
/home/qc2335/optee/optee_os/tee_api_objects.c:826
    2cc8:	f9001be0 	str	x0, [sp, #48]
/home/qc2335/optee/optee_os/tee_api_objects.c:827
    2ccc:	aa1603e0 	mov	x0, x22
    2cd0:	940004b8 	bl	3fb0 <_utee_storage_next_enum>
    2cd4:	2a0003f4 	mov	w20, w0
/home/qc2335/optee/optee_os/tee_api_objects.c:829
    2cd8:	b4000173 	cbz	x19, 2d04 <TEE_GetNextPersistentObject+0xac>
/home/qc2335/optee/optee_os/tee_api_objects.c:830
    2cdc:	f9401fe0 	ldr	x0, [sp, #56]
    2ce0:	f9000260 	str	x0, [x19]
/home/qc2335/optee/optee_os/tee_api_objects.c:832
    2ce4:	f94023e0 	ldr	x0, [sp, #64]
    2ce8:	f9000660 	str	x0, [x19, #8]
/home/qc2335/optee/optee_os/tee_api_objects.c:834
    2cec:	b9404be0 	ldr	w0, [sp, #72]
    2cf0:	f9000a60 	str	x0, [x19, #16]
/home/qc2335/optee/optee_os/tee_api_objects.c:835
    2cf4:	b9404fe0 	ldr	w0, [sp, #76]
    2cf8:	f9000e60 	str	x0, [x19, #24]
/home/qc2335/optee/optee_os/tee_api_objects.c:836
    2cfc:	b94053e0 	ldr	w0, [sp, #80]
    2d00:	b9002260 	str	w0, [x19, #32]
/home/qc2335/optee/optee_os/tee_api_objects.c:838
    2d04:	f9401be0 	ldr	x0, [sp, #48]
    2d08:	f90002a0 	str	x0, [x21]
/home/qc2335/optee/optee_os/tee_api_objects.c:841
    2d0c:	7100029f 	cmp	w20, #0x0
    2d10:	129ffee0 	mov	w0, #0xffff0008            	// #-65528
    2d14:	7a401284 	ccmp	w20, w0, #0x4, ne  // ne = any
    2d18:	54000100 	b.eq	2d38 <TEE_GetNextPersistentObject+0xe0>  // b.none
/home/qc2335/optee/optee_os/tee_api_objects.c:843
    2d1c:	52800020 	mov	w0, #0x1                   	// #1
    2d20:	121e7a81 	and	w1, w20, #0xfffffffd
    2d24:	72be0200 	movk	w0, #0xf010, lsl #16
    2d28:	6b00003f 	cmp	w1, w0
    2d2c:	54000060 	b.eq	2d38 <TEE_GetNextPersistentObject+0xe0>  // b.none
/home/qc2335/optee/optee_os/tee_api_objects.c:845
    2d30:	2a1403e0 	mov	w0, w20
    2d34:	9400013c 	bl	3224 <TEE_Panic>
/home/qc2335/optee/optee_os/tee_api_objects.c:848
    2d38:	900000c1 	adrp	x1, 1a000 <_DYNAMIC>
    2d3c:	f9409821 	ldr	x1, [x1, #304]
    2d40:	f9402fe0 	ldr	x0, [sp, #88]
    2d44:	f9400022 	ldr	x2, [x1]
    2d48:	eb020000 	subs	x0, x0, x2
    2d4c:	d2800002 	mov	x2, #0x0                   	// #0
    2d50:	54000080 	b.eq	2d60 <TEE_GetNextPersistentObject+0x108>  // b.none
    2d54:	97fff5bb 	bl	440 <__stack_chk_fail>
/home/qc2335/optee/optee_os/tee_api_objects.c:822
    2d58:	129fff34 	mov	w20, #0xffff0006            	// #-65530
    2d5c:	17ffffec 	b	2d0c <TEE_GetNextPersistentObject+0xb4>
/home/qc2335/optee/optee_os/tee_api_objects.c:848
    2d60:	2a1403e0 	mov	w0, w20
    2d64:	a94153f3 	ldp	x19, x20, [sp, #16]
    2d68:	a9425bf5 	ldp	x21, x22, [sp, #32]
    2d6c:	a8c67bfd 	ldp	x29, x30, [sp], #96
    2d70:	d65f03c0 	ret

0000000000002d74 <__GP11_TEE_GetNextPersistentObject>:
__GP11_TEE_GetNextPersistentObject():
/home/qc2335/optee/optee_os/tee_api_objects.c:854
    2d74:	a9ba7bfd 	stp	x29, x30, [sp, #-96]!
    2d78:	910003fd 	mov	x29, sp
    2d7c:	a90153f3 	stp	x19, x20, [sp, #16]
    2d80:	aa0103f3 	mov	x19, x1
    2d84:	900000c1 	adrp	x1, 1a000 <_DYNAMIC>
    2d88:	a9025bf5 	stp	x21, x22, [sp, #32]
    2d8c:	aa0003f6 	mov	x22, x0
    2d90:	aa0203f4 	mov	x20, x2
    2d94:	f9409821 	ldr	x1, [x1, #304]
    2d98:	aa0303f5 	mov	x21, x3
    2d9c:	f9400020 	ldr	x0, [x1]
    2da0:	f9002fe0 	str	x0, [sp, #88]
    2da4:	d2800000 	mov	x0, #0x0                   	// #0
/home/qc2335/optee/optee_os/tee_api_objects.c:855
    2da8:	a9037fff 	stp	xzr, xzr, [sp, #48]
    2dac:	a9047fff 	stp	xzr, xzr, [sp, #64]
    2db0:	b90053ff 	str	wzr, [sp, #80]
/home/qc2335/optee/optee_os/tee_api_objects.c:859
    2db4:	b4000093 	cbz	x19, 2dc4 <__GP11_TEE_GetNextPersistentObject+0x50>
/home/qc2335/optee/optee_os/tee_api_objects.c:860
    2db8:	aa1303e0 	mov	x0, x19
    2dbc:	d2800381 	mov	x1, #0x1c                  	// #28
    2dc0:	94000177 	bl	339c <__utee_check_out_annotation>
/home/qc2335/optee/optee_os/tee_api_objects.c:861
    2dc4:	aa1503e0 	mov	x0, x21
    2dc8:	d2800081 	mov	x1, #0x4                   	// #4
    2dcc:	94000174 	bl	339c <__utee_check_out_annotation>
/home/qc2335/optee/optee_os/tee_api_objects.c:863
    2dd0:	b40005b4 	cbz	x20, 2e84 <__GP11_TEE_GetNextPersistentObject+0x110>
/home/qc2335/optee/optee_os/tee_api_objects.c:868
    2dd4:	b94002a0 	ldr	w0, [x21]
/home/qc2335/optee/optee_os/tee_api_objects.c:869
    2dd8:	aa1403e2 	mov	x2, x20
    2ddc:	9100c3e3 	add	x3, sp, #0x30
    2de0:	9100e3e1 	add	x1, sp, #0x38
/home/qc2335/optee/optee_os/tee_api_objects.c:868
    2de4:	f9001be0 	str	x0, [sp, #48]
/home/qc2335/optee/optee_os/tee_api_objects.c:869
    2de8:	aa1603e0 	mov	x0, x22
    2dec:	94000471 	bl	3fb0 <_utee_storage_next_enum>
    2df0:	2a0003f4 	mov	w20, w0
/home/qc2335/optee/optee_os/tee_api_objects.c:871
    2df4:	b40001f3 	cbz	x19, 2e30 <__GP11_TEE_GetNextPersistentObject+0xbc>
/home/qc2335/optee/optee_os/tee_api_objects.c:872
    2df8:	b9403be0 	ldr	w0, [sp, #56]
    2dfc:	b9000260 	str	w0, [x19]
/home/qc2335/optee/optee_os/tee_api_objects.c:873
    2e00:	b9403fe0 	ldr	w0, [sp, #60]
    2e04:	b9000660 	str	w0, [x19, #4]
/home/qc2335/optee/optee_os/tee_api_objects.c:874
    2e08:	b94043e0 	ldr	w0, [sp, #64]
    2e0c:	b9000a60 	str	w0, [x19, #8]
/home/qc2335/optee/optee_os/tee_api_objects.c:875
    2e10:	b94047e0 	ldr	w0, [sp, #68]
    2e14:	b9000e60 	str	w0, [x19, #12]
/home/qc2335/optee/optee_os/tee_api_objects.c:876
    2e18:	b9404be0 	ldr	w0, [sp, #72]
    2e1c:	b9001260 	str	w0, [x19, #16]
/home/qc2335/optee/optee_os/tee_api_objects.c:877
    2e20:	b9404fe0 	ldr	w0, [sp, #76]
    2e24:	b9001660 	str	w0, [x19, #20]
/home/qc2335/optee/optee_os/tee_api_objects.c:878
    2e28:	b94053e0 	ldr	w0, [sp, #80]
    2e2c:	b9001a60 	str	w0, [x19, #24]
/home/qc2335/optee/optee_os/tee_api_objects.c:880
    2e30:	f9401be0 	ldr	x0, [sp, #48]
    2e34:	b90002a0 	str	w0, [x21]
/home/qc2335/optee/optee_os/tee_api_objects.c:883
    2e38:	7100029f 	cmp	w20, #0x0
    2e3c:	129ffee0 	mov	w0, #0xffff0008            	// #-65528
    2e40:	7a401284 	ccmp	w20, w0, #0x4, ne  // ne = any
    2e44:	54000100 	b.eq	2e64 <__GP11_TEE_GetNextPersistentObject+0xf0>  // b.none
/home/qc2335/optee/optee_os/tee_api_objects.c:885
    2e48:	52800020 	mov	w0, #0x1                   	// #1
    2e4c:	121e7a81 	and	w1, w20, #0xfffffffd
    2e50:	72be0200 	movk	w0, #0xf010, lsl #16
    2e54:	6b00003f 	cmp	w1, w0
    2e58:	54000060 	b.eq	2e64 <__GP11_TEE_GetNextPersistentObject+0xf0>  // b.none
/home/qc2335/optee/optee_os/tee_api_objects.c:887
    2e5c:	2a1403e0 	mov	w0, w20
    2e60:	940000f1 	bl	3224 <TEE_Panic>
/home/qc2335/optee/optee_os/tee_api_objects.c:890
    2e64:	900000c1 	adrp	x1, 1a000 <_DYNAMIC>
    2e68:	f9409821 	ldr	x1, [x1, #304]
    2e6c:	f9402fe0 	ldr	x0, [sp, #88]
    2e70:	f9400022 	ldr	x2, [x1]
    2e74:	eb020000 	subs	x0, x0, x2
    2e78:	d2800002 	mov	x2, #0x0                   	// #0
    2e7c:	54000080 	b.eq	2e8c <__GP11_TEE_GetNextPersistentObject+0x118>  // b.none
    2e80:	97fff570 	bl	440 <__stack_chk_fail>
/home/qc2335/optee/optee_os/tee_api_objects.c:864
    2e84:	129fff34 	mov	w20, #0xffff0006            	// #-65530
    2e88:	17ffffec 	b	2e38 <__GP11_TEE_GetNextPersistentObject+0xc4>
/home/qc2335/optee/optee_os/tee_api_objects.c:890
    2e8c:	2a1403e0 	mov	w0, w20
    2e90:	a94153f3 	ldp	x19, x20, [sp, #16]
    2e94:	a9425bf5 	ldp	x21, x22, [sp, #32]
    2e98:	a8c67bfd 	ldp	x29, x30, [sp], #96
    2e9c:	d65f03c0 	ret

0000000000002ea0 <TEE_ReadObjectData>:
TEE_ReadObjectData():
/home/qc2335/optee/optee_os/tee_api_objects.c:896
    2ea0:	a9bc7bfd 	stp	x29, x30, [sp, #-64]!
    2ea4:	900000c4 	adrp	x4, 1a000 <_DYNAMIC>
    2ea8:	910003fd 	mov	x29, sp
    2eac:	f9409884 	ldr	x4, [x4, #304]
    2eb0:	a90153f3 	stp	x19, x20, [sp, #16]
    2eb4:	aa0003f3 	mov	x19, x0
    2eb8:	a9025bf5 	stp	x21, x22, [sp, #32]
    2ebc:	f9400080 	ldr	x0, [x4]
    2ec0:	f9001fe0 	str	x0, [sp, #56]
    2ec4:	d2800000 	mov	x0, #0x0                   	// #0
/home/qc2335/optee/optee_os/tee_api_objects.c:900
    2ec8:	b4000433 	cbz	x19, 2f4c <TEE_ReadObjectData+0xac>
    2ecc:	aa0303f4 	mov	x20, x3
/home/qc2335/optee/optee_os/tee_api_objects.c:904
    2ed0:	aa0303e0 	mov	x0, x3
    2ed4:	aa0103f5 	mov	x21, x1
    2ed8:	aa0203f6 	mov	x22, x2
    2edc:	d2800101 	mov	x1, #0x8                   	// #8
    2ee0:	9400012f 	bl	339c <__utee_check_out_annotation>
/home/qc2335/optee/optee_os/tee_api_objects.c:906
    2ee4:	f9400280 	ldr	x0, [x20]
/home/qc2335/optee/optee_os/tee_api_objects.c:907
    2ee8:	9100c3e3 	add	x3, sp, #0x30
    2eec:	aa1603e2 	mov	x2, x22
    2ef0:	aa1503e1 	mov	x1, x21
/home/qc2335/optee/optee_os/tee_api_objects.c:906
    2ef4:	f9001be0 	str	x0, [sp, #48]
/home/qc2335/optee/optee_os/tee_api_objects.c:907
    2ef8:	aa1303e0 	mov	x0, x19
    2efc:	94000430 	bl	3fbc <_utee_storage_obj_read>
    2f00:	2a0003f3 	mov	w19, w0
/home/qc2335/optee/optee_os/tee_api_objects.c:909
    2f04:	f9401be0 	ldr	x0, [sp, #48]
    2f08:	f9000280 	str	x0, [x20]
/home/qc2335/optee/optee_os/tee_api_objects.c:913
    2f0c:	121e7a60 	and	w0, w19, #0xfffffffd
/home/qc2335/optee/optee_os/tee_api_objects.c:912
    2f10:	7100027f 	cmp	w19, #0x0
    2f14:	52800021 	mov	w1, #0x1                   	// #1
    2f18:	72be0201 	movk	w1, #0xf010, lsl #16
    2f1c:	7a411004 	ccmp	w0, w1, #0x4, ne  // ne = any
    2f20:	54000060 	b.eq	2f2c <TEE_ReadObjectData+0x8c>  // b.none
/home/qc2335/optee/optee_os/tee_api_objects.c:915
    2f24:	2a1303e0 	mov	w0, w19
    2f28:	940000bf 	bl	3224 <TEE_Panic>
/home/qc2335/optee/optee_os/tee_api_objects.c:918
    2f2c:	900000c4 	adrp	x4, 1a000 <_DYNAMIC>
    2f30:	f9409884 	ldr	x4, [x4, #304]
    2f34:	f9401fe0 	ldr	x0, [sp, #56]
    2f38:	f9400081 	ldr	x1, [x4]
    2f3c:	eb010000 	subs	x0, x0, x1
    2f40:	d2800001 	mov	x1, #0x0                   	// #0
    2f44:	54000080 	b.eq	2f54 <TEE_ReadObjectData+0xb4>  // b.none
    2f48:	97fff53e 	bl	440 <__stack_chk_fail>
/home/qc2335/optee/optee_os/tee_api_objects.c:901
    2f4c:	129fff33 	mov	w19, #0xffff0006            	// #-65530
    2f50:	17ffffef 	b	2f0c <TEE_ReadObjectData+0x6c>
/home/qc2335/optee/optee_os/tee_api_objects.c:918
    2f54:	2a1303e0 	mov	w0, w19
    2f58:	a94153f3 	ldp	x19, x20, [sp, #16]
    2f5c:	a9425bf5 	ldp	x21, x22, [sp, #32]
    2f60:	a8c47bfd 	ldp	x29, x30, [sp], #64
    2f64:	d65f03c0 	ret

0000000000002f68 <__GP11_TEE_ReadObjectData>:
__GP11_TEE_ReadObjectData():
/home/qc2335/optee/optee_os/tee_api_objects.c:922
    2f68:	a9bb7bfd 	stp	x29, x30, [sp, #-80]!
    2f6c:	910003fd 	mov	x29, sp
    2f70:	a90153f3 	stp	x19, x20, [sp, #16]
    2f74:	900000d4 	adrp	x20, 1a000 <_DYNAMIC>
    2f78:	aa0303f3 	mov	x19, x3
    2f7c:	a9025bf5 	stp	x21, x22, [sp, #32]
    2f80:	aa0003f5 	mov	x21, x0
    2f84:	aa0103f6 	mov	x22, x1
    2f88:	f9409a80 	ldr	x0, [x20, #304]
    2f8c:	f9001bf7 	str	x23, [sp, #48]
    2f90:	2a0203f7 	mov	w23, w2
    2f94:	f9400001 	ldr	x1, [x0]
    2f98:	f90027e1 	str	x1, [sp, #72]
    2f9c:	d2800001 	mov	x1, #0x0                   	// #0
/home/qc2335/optee/optee_os/tee_api_objects.c:926
    2fa0:	aa0303e0 	mov	x0, x3
    2fa4:	d2800081 	mov	x1, #0x4                   	// #4
/home/qc2335/optee/optee_os/tee_api_objects.c:924
    2fa8:	f90023ff 	str	xzr, [sp, #64]
/home/qc2335/optee/optee_os/tee_api_objects.c:926
    2fac:	940000fc 	bl	339c <__utee_check_out_annotation>
/home/qc2335/optee/optee_os/tee_api_objects.c:927
    2fb0:	b9400260 	ldr	w0, [x19]
/home/qc2335/optee/optee_os/tee_api_objects.c:928
    2fb4:	2a1703e2 	mov	w2, w23
    2fb8:	aa1603e1 	mov	x1, x22
    2fbc:	910103e3 	add	x3, sp, #0x40
/home/qc2335/optee/optee_os/tee_api_objects.c:927
    2fc0:	f90023e0 	str	x0, [sp, #64]
/home/qc2335/optee/optee_os/tee_api_objects.c:928
    2fc4:	aa1503e0 	mov	x0, x21
    2fc8:	97ffffb6 	bl	2ea0 <TEE_ReadObjectData>
/home/qc2335/optee/optee_os/tee_api_objects.c:931
    2fcc:	f9409a94 	ldr	x20, [x20, #304]
/home/qc2335/optee/optee_os/tee_api_objects.c:929
    2fd0:	f94023e1 	ldr	x1, [sp, #64]
    2fd4:	b9000261 	str	w1, [x19]
/home/qc2335/optee/optee_os/tee_api_objects.c:931
    2fd8:	f94027e1 	ldr	x1, [sp, #72]
    2fdc:	f9400282 	ldr	x2, [x20]
    2fe0:	eb020021 	subs	x1, x1, x2
    2fe4:	d2800002 	mov	x2, #0x0                   	// #0
    2fe8:	54000040 	b.eq	2ff0 <__GP11_TEE_ReadObjectData+0x88>  // b.none
    2fec:	97fff515 	bl	440 <__stack_chk_fail>
    2ff0:	a94153f3 	ldp	x19, x20, [sp, #16]
    2ff4:	a9425bf5 	ldp	x21, x22, [sp, #32]
    2ff8:	f9401bf7 	ldr	x23, [sp, #48]
    2ffc:	a8c57bfd 	ldp	x29, x30, [sp], #80
    3000:	d65f03c0 	ret

0000000000003004 <TEE_WriteObjectData>:
TEE_WriteObjectData():
/home/qc2335/optee/optee_os/tee_api_objects.c:935
    3004:	a9be7bfd 	stp	x29, x30, [sp, #-32]!
    3008:	910003fd 	mov	x29, sp
    300c:	f9000bf3 	str	x19, [sp, #16]
/home/qc2335/optee/optee_os/tee_api_objects.c:938
    3010:	b40002e0 	cbz	x0, 306c <TEE_WriteObjectData+0x68>
/home/qc2335/optee/optee_os/tee_api_objects.c:943
    3014:	b2407fe4 	mov	x4, #0xffffffff            	// #4294967295
    3018:	eb04005f 	cmp	x2, x4
    301c:	540002c8 	b.hi	3074 <TEE_WriteObjectData+0x70>  // b.pmore
/home/qc2335/optee/optee_os/tee_api_objects.c:948
    3020:	940003ea 	bl	3fc8 <_utee_storage_obj_write>
    3024:	2a0003f3 	mov	w19, w0
/home/qc2335/optee/optee_os/tee_api_objects.c:951
    3028:	7100027f 	cmp	w19, #0x0
    302c:	1299f7c0 	mov	w0, #0xffff3041            	// #-53183
    3030:	7a401264 	ccmp	w19, w0, #0x4, ne  // ne = any
    3034:	54000140 	b.eq	305c <TEE_WriteObjectData+0x58>  // b.none
/home/qc2335/optee/optee_os/tee_api_objects.c:954
    3038:	121e7a61 	and	w1, w19, #0xfffffffd
/home/qc2335/optee/optee_os/tee_api_objects.c:953
    303c:	52800020 	mov	w0, #0x1                   	// #1
    3040:	72be0200 	movk	w0, #0xf010, lsl #16
    3044:	6b00003f 	cmp	w1, w0
    3048:	1299fe00 	mov	w0, #0xffff300f            	// #-53233
    304c:	7a401264 	ccmp	w19, w0, #0x4, ne  // ne = any
    3050:	54000060 	b.eq	305c <TEE_WriteObjectData+0x58>  // b.none
/home/qc2335/optee/optee_os/tee_api_objects.c:956
    3054:	2a1303e0 	mov	w0, w19
    3058:	94000073 	bl	3224 <TEE_Panic>
/home/qc2335/optee/optee_os/tee_api_objects.c:959
    305c:	2a1303e0 	mov	w0, w19
    3060:	f9400bf3 	ldr	x19, [sp, #16]
    3064:	a8c27bfd 	ldp	x29, x30, [sp], #32
    3068:	d65f03c0 	ret
/home/qc2335/optee/optee_os/tee_api_objects.c:939
    306c:	129fff33 	mov	w19, #0xffff0006            	// #-65530
    3070:	17ffffee 	b	3028 <TEE_WriteObjectData+0x24>
/home/qc2335/optee/optee_os/tee_api_objects.c:944
    3074:	1299fe13 	mov	w19, #0xffff300f            	// #-53233
    3078:	17ffffec 	b	3028 <TEE_WriteObjectData+0x24>

000000000000307c <__GP11_TEE_WriteObjectData>:
__GP11_TEE_WriteObjectData():
/home/qc2335/optee/optee_os/tee_api_objects.c:964
    307c:	2a0203e2 	mov	w2, w2
    3080:	17ffffe1 	b	3004 <TEE_WriteObjectData>

0000000000003084 <TEE_TruncateObjectData>:
TEE_TruncateObjectData():
/home/qc2335/optee/optee_os/tee_api_objects.c:968
    3084:	a9be7bfd 	stp	x29, x30, [sp, #-32]!
    3088:	910003fd 	mov	x29, sp
    308c:	f9000bf3 	str	x19, [sp, #16]
/home/qc2335/optee/optee_os/tee_api_objects.c:971
    3090:	b4000240 	cbz	x0, 30d8 <TEE_TruncateObjectData+0x54>
/home/qc2335/optee/optee_os/tee_api_objects.c:976
    3094:	940003d0 	bl	3fd4 <_utee_storage_obj_trunc>
    3098:	2a0003f3 	mov	w19, w0
/home/qc2335/optee/optee_os/tee_api_objects.c:979
    309c:	7100027f 	cmp	w19, #0x0
    30a0:	1299f7c0 	mov	w0, #0xffff3041            	// #-53183
    30a4:	7a401264 	ccmp	w19, w0, #0x4, ne  // ne = any
    30a8:	54000100 	b.eq	30c8 <TEE_TruncateObjectData+0x44>  // b.none
/home/qc2335/optee/optee_os/tee_api_objects.c:981
    30ac:	52800020 	mov	w0, #0x1                   	// #1
    30b0:	121e7a61 	and	w1, w19, #0xfffffffd
    30b4:	72be0200 	movk	w0, #0xf010, lsl #16
    30b8:	6b00003f 	cmp	w1, w0
    30bc:	54000060 	b.eq	30c8 <TEE_TruncateObjectData+0x44>  // b.none
/home/qc2335/optee/optee_os/tee_api_objects.c:983
    30c0:	2a1303e0 	mov	w0, w19
    30c4:	94000058 	bl	3224 <TEE_Panic>
/home/qc2335/optee/optee_os/tee_api_objects.c:986
    30c8:	2a1303e0 	mov	w0, w19
    30cc:	f9400bf3 	ldr	x19, [sp, #16]
    30d0:	a8c27bfd 	ldp	x29, x30, [sp], #32
    30d4:	d65f03c0 	ret
/home/qc2335/optee/optee_os/tee_api_objects.c:972
    30d8:	129fff33 	mov	w19, #0xffff0006            	// #-65530
    30dc:	17fffff0 	b	309c <TEE_TruncateObjectData+0x18>

00000000000030e0 <__GP11_TEE_TruncateObjectData>:
__GP11_TEE_TruncateObjectData():
/home/qc2335/optee/optee_os/tee_api_objects.c:991
    30e0:	2a0103e1 	mov	w1, w1
    30e4:	17ffffe8 	b	3084 <TEE_TruncateObjectData>

00000000000030e8 <TEE_SeekObjectData>:
TEE_SeekObjectData():
/home/qc2335/optee/optee_os/tee_api_objects.c:996
    30e8:	a9ba7bfd 	stp	x29, x30, [sp, #-96]!
    30ec:	f00000a3 	adrp	x3, 1a000 <_DYNAMIC>
    30f0:	910003fd 	mov	x29, sp
    30f4:	f9409863 	ldr	x3, [x3, #304]
    30f8:	a90153f3 	stp	x19, x20, [sp, #16]
    30fc:	aa0103f4 	mov	x20, x1
    3100:	a9025bf5 	stp	x21, x22, [sp, #32]
    3104:	f9400061 	ldr	x1, [x3]
    3108:	f9002fe1 	str	x1, [sp, #88]
    310c:	d2800001 	mov	x1, #0x0                   	// #0
/home/qc2335/optee/optee_os/tee_api_objects.c:997
    3110:	a903ffff 	stp	xzr, xzr, [sp, #56]
    3114:	f90027ff 	str	xzr, [sp, #72]
    3118:	b90053ff 	str	wzr, [sp, #80]
/home/qc2335/optee/optee_os/tee_api_objects.c:1000
    311c:	b4000600 	cbz	x0, 31dc <TEE_SeekObjectData+0xf4>
    3120:	aa0003f6 	mov	x22, x0
    3124:	2a0203f5 	mov	w21, w2
/home/qc2335/optee/optee_os/tee_api_objects.c:1005
    3128:	9100e3e1 	add	x1, sp, #0x38
    312c:	94000356 	bl	3e84 <_utee_cryp_obj_get_info>
    3130:	2a0003f3 	mov	w19, w0
/home/qc2335/optee/optee_os/tee_api_objects.c:1006
    3134:	350000e0 	cbnz	w0, 3150 <TEE_SeekObjectData+0x68>
/home/qc2335/optee/optee_os/tee_api_objects.c:1009
    3138:	710006bf 	cmp	w21, #0x1
    313c:	54000300 	b.eq	319c <TEE_SeekObjectData+0xb4>  // b.none
    3140:	71000abf 	cmp	w21, #0x2
    3144:	54000440 	b.eq	31cc <TEE_SeekObjectData+0xe4>  // b.none
    3148:	34000375 	cbz	w21, 31b4 <TEE_SeekObjectData+0xcc>
    314c:	129ffef3 	mov	w19, #0xffff0008            	// #-65528
/home/qc2335/optee/optee_os/tee_api_objects.c:1041
    3150:	7100027f 	cmp	w19, #0x0
    3154:	1299fe00 	mov	w0, #0xffff300f            	// #-53233
    3158:	7a401264 	ccmp	w19, w0, #0x4, ne  // ne = any
    315c:	54000100 	b.eq	317c <TEE_SeekObjectData+0x94>  // b.none
/home/qc2335/optee/optee_os/tee_api_objects.c:1043
    3160:	52800020 	mov	w0, #0x1                   	// #1
    3164:	121e7a61 	and	w1, w19, #0xfffffffd
    3168:	72be0200 	movk	w0, #0xf010, lsl #16
    316c:	6b00003f 	cmp	w1, w0
    3170:	54000060 	b.eq	317c <TEE_SeekObjectData+0x94>  // b.none
/home/qc2335/optee/optee_os/tee_api_objects.c:1045
    3174:	2a1303e0 	mov	w0, w19
    3178:	9400002b 	bl	3224 <TEE_Panic>
/home/qc2335/optee/optee_os/tee_api_objects.c:1048
    317c:	f00000a3 	adrp	x3, 1a000 <_DYNAMIC>
    3180:	f9409863 	ldr	x3, [x3, #304]
    3184:	f9402fe0 	ldr	x0, [sp, #88]
    3188:	f9400061 	ldr	x1, [x3]
    318c:	eb010000 	subs	x0, x0, x1
    3190:	d2800001 	mov	x1, #0x0                   	// #0
    3194:	540002c0 	b.eq	31ec <TEE_SeekObjectData+0x104>  // b.none
    3198:	97fff4aa 	bl	440 <__stack_chk_fail>
/home/qc2335/optee/optee_os/tee_api_objects.c:1017
    319c:	f100029f 	cmp	x20, #0x0
    31a0:	540000ad 	b.le	31b4 <TEE_SeekObjectData+0xcc>
/home/qc2335/optee/optee_os/tee_api_objects.c:1019 (discriminator 1)
    31a4:	b9404fe0 	ldr	w0, [sp, #76]
/home/qc2335/optee/optee_os/tee_api_objects.c:1028 (discriminator 1)
    31a8:	0b140001 	add	w1, w0, w20
/home/qc2335/optee/optee_os/tee_api_objects.c:1025 (discriminator 1)
    31ac:	6b01001f 	cmp	w0, w1
    31b0:	540001a8 	b.hi	31e4 <TEE_SeekObjectData+0xfc>  // b.pmore
/home/qc2335/optee/optee_os/tee_api_objects.c:1038
    31b4:	2a1503e2 	mov	w2, w21
    31b8:	2a1403e1 	mov	w1, w20
    31bc:	aa1603e0 	mov	x0, x22
    31c0:	94000388 	bl	3fe0 <_utee_storage_obj_seek>
    31c4:	2a0003f3 	mov	w19, w0
    31c8:	17ffffe2 	b	3150 <TEE_SeekObjectData+0x68>
/home/qc2335/optee/optee_os/tee_api_objects.c:1025
    31cc:	f100029f 	cmp	x20, #0x0
    31d0:	54ffff2d 	b.le	31b4 <TEE_SeekObjectData+0xcc>
/home/qc2335/optee/optee_os/tee_api_objects.c:1028 (discriminator 1)
    31d4:	b9404be0 	ldr	w0, [sp, #72]
    31d8:	17fffff4 	b	31a8 <TEE_SeekObjectData+0xc0>
/home/qc2335/optee/optee_os/tee_api_objects.c:1001
    31dc:	129fff33 	mov	w19, #0xffff0006            	// #-65530
    31e0:	17ffffdc 	b	3150 <TEE_SeekObjectData+0x68>
/home/qc2335/optee/optee_os/tee_api_objects.c:1020
    31e4:	1299fe13 	mov	w19, #0xffff300f            	// #-53233
    31e8:	17ffffda 	b	3150 <TEE_SeekObjectData+0x68>
/home/qc2335/optee/optee_os/tee_api_objects.c:1048
    31ec:	2a1303e0 	mov	w0, w19
    31f0:	a94153f3 	ldp	x19, x20, [sp, #16]
    31f4:	a9425bf5 	ldp	x21, x22, [sp, #32]
    31f8:	a8c67bfd 	ldp	x29, x30, [sp], #96
    31fc:	d65f03c0 	ret

0000000000003200 <__GP11_TEE_SeekObjectData>:
__GP11_TEE_SeekObjectData():
/home/qc2335/optee/optee_os/tee_api_objects.c:1053
    3200:	93407c21 	sxtw	x1, w1
    3204:	17ffffb9 	b	30e8 <TEE_SeekObjectData>

0000000000003208 <check_access>:
check_access():
    3208:	b4000062 	cbz	x2, 3214 <check_access+0xc>
    320c:	b4000081 	cbz	x1, 321c <check_access+0x14>
    3210:	140004c2 	b	4518 <TEE_CheckMemoryAccessRights>
    3214:	52800000 	mov	w0, #0x0                   	// #0
    3218:	d65f03c0 	ret
    321c:	129ffe00 	mov	w0, #0xffff000f            	// #-65521
    3220:	17fffffe 	b	3218 <check_access+0x10>

0000000000003224 <TEE_Panic>:
TEE_Panic():
    3224:	2a0003e0 	mov	w0, w0
    3228:	140002cc 	b	3d58 <_utee_panic>

000000000000322c <check_res.constprop.0>:
check_res.constprop.0():
    322c:	34000060 	cbz	w0, 3238 <check_res.constprop.0+0xc>
    3230:	52800000 	mov	w0, #0x0                   	// #0
    3234:	17fffffc 	b	3224 <TEE_Panic>
    3238:	d65f03c0 	ret

000000000000323c <__utee_check_outbuf_annotation>:
__utee_check_outbuf_annotation():
    323c:	a9be7bfd 	stp	x29, x30, [sp, #-32]!
    3240:	910003fd 	mov	x29, sp
    3244:	a90153f3 	stp	x19, x20, [sp, #16]
    3248:	aa0003f4 	mov	x20, x0
    324c:	aa0103f3 	mov	x19, x1
    3250:	b4000181 	cbz	x1, 3280 <__utee_check_outbuf_annotation+0x44>
    3254:	d2800102 	mov	x2, #0x8                   	// #8
    3258:	52800060 	mov	w0, #0x3                   	// #3
    325c:	940004af 	bl	4518 <TEE_CheckMemoryAccessRights>
    3260:	97fffff3 	bl	322c <check_res.constprop.0>
    3264:	f9400262 	ldr	x2, [x19]
    3268:	aa1403e1 	mov	x1, x20
    326c:	528000c0 	mov	w0, #0x6                   	// #6
    3270:	97ffffe6 	bl	3208 <check_access>
    3274:	a94153f3 	ldp	x19, x20, [sp, #16]
    3278:	a8c27bfd 	ldp	x29, x30, [sp], #32
    327c:	17ffffec 	b	322c <check_res.constprop.0>
    3280:	129ffe00 	mov	w0, #0xffff000f            	// #-65521
    3284:	17fffff7 	b	3260 <__utee_check_outbuf_annotation+0x24>

0000000000003288 <__utee_check_gp11_outbuf_annotation>:
__utee_check_gp11_outbuf_annotation():
    3288:	a9be7bfd 	stp	x29, x30, [sp, #-32]!
    328c:	910003fd 	mov	x29, sp
    3290:	a90153f3 	stp	x19, x20, [sp, #16]
    3294:	aa0003f4 	mov	x20, x0
    3298:	aa0103f3 	mov	x19, x1
    329c:	b4000181 	cbz	x1, 32cc <__utee_check_gp11_outbuf_annotation+0x44>
    32a0:	d2800082 	mov	x2, #0x4                   	// #4
    32a4:	52800060 	mov	w0, #0x3                   	// #3
    32a8:	9400049c 	bl	4518 <TEE_CheckMemoryAccessRights>
    32ac:	97ffffe0 	bl	322c <check_res.constprop.0>
    32b0:	b9400262 	ldr	w2, [x19]
    32b4:	aa1403e1 	mov	x1, x20
    32b8:	528000c0 	mov	w0, #0x6                   	// #6
    32bc:	97ffffd3 	bl	3208 <check_access>
    32c0:	a94153f3 	ldp	x19, x20, [sp, #16]
    32c4:	a8c27bfd 	ldp	x29, x30, [sp], #32
    32c8:	17ffffd9 	b	322c <check_res.constprop.0>
    32cc:	129ffe00 	mov	w0, #0xffff000f            	// #-65521
    32d0:	17fffff7 	b	32ac <__utee_check_gp11_outbuf_annotation+0x24>

00000000000032d4 <__utee_check_instring_annotation>:
__utee_check_instring_annotation():
    32d4:	a9be7bfd 	stp	x29, x30, [sp, #-32]!
    32d8:	910003fd 	mov	x29, sp
    32dc:	f9000bf3 	str	x19, [sp, #16]
    32e0:	aa0003f3 	mov	x19, x0
    32e4:	97fff8b9 	bl	15c8 <strlen>
    32e8:	91000402 	add	x2, x0, #0x1
    32ec:	aa1303e1 	mov	x1, x19
    32f0:	52800020 	mov	w0, #0x1                   	// #1
    32f4:	97ffffc5 	bl	3208 <check_access>
    32f8:	f9400bf3 	ldr	x19, [sp, #16]
    32fc:	a8c27bfd 	ldp	x29, x30, [sp], #32
    3300:	17ffffcb 	b	322c <check_res.constprop.0>

0000000000003304 <__utee_check_outstring_annotation>:
__utee_check_outstring_annotation():
    3304:	a9be7bfd 	stp	x29, x30, [sp, #-32]!
    3308:	910003fd 	mov	x29, sp
    330c:	a90153f3 	stp	x19, x20, [sp, #16]
    3310:	aa0003f4 	mov	x20, x0
    3314:	aa0103f3 	mov	x19, x1
    3318:	b4000181 	cbz	x1, 3348 <__utee_check_outstring_annotation+0x44>
    331c:	d2800102 	mov	x2, #0x8                   	// #8
    3320:	52800060 	mov	w0, #0x3                   	// #3
    3324:	9400047d 	bl	4518 <TEE_CheckMemoryAccessRights>
    3328:	97ffffc1 	bl	322c <check_res.constprop.0>
    332c:	f9400262 	ldr	x2, [x19]
    3330:	aa1403e1 	mov	x1, x20
    3334:	528000c0 	mov	w0, #0x6                   	// #6
    3338:	97ffffb4 	bl	3208 <check_access>
    333c:	a94153f3 	ldp	x19, x20, [sp, #16]
    3340:	a8c27bfd 	ldp	x29, x30, [sp], #32
    3344:	17ffffba 	b	322c <check_res.constprop.0>
    3348:	129ffe00 	mov	w0, #0xffff000f            	// #-65521
    334c:	17fffff7 	b	3328 <__utee_check_outstring_annotation+0x24>

0000000000003350 <__utee_check_gp11_outstring_annotation>:
__utee_check_gp11_outstring_annotation():
    3350:	a9be7bfd 	stp	x29, x30, [sp, #-32]!
    3354:	910003fd 	mov	x29, sp
    3358:	a90153f3 	stp	x19, x20, [sp, #16]
    335c:	aa0003f4 	mov	x20, x0
    3360:	aa0103f3 	mov	x19, x1
    3364:	b4000181 	cbz	x1, 3394 <__utee_check_gp11_outstring_annotation+0x44>
    3368:	d2800082 	mov	x2, #0x4                   	// #4
    336c:	52800060 	mov	w0, #0x3                   	// #3
    3370:	9400046a 	bl	4518 <TEE_CheckMemoryAccessRights>
    3374:	97ffffae 	bl	322c <check_res.constprop.0>
    3378:	b9400262 	ldr	w2, [x19]
    337c:	aa1403e1 	mov	x1, x20
    3380:	528000c0 	mov	w0, #0x6                   	// #6
    3384:	97ffffa1 	bl	3208 <check_access>
    3388:	a94153f3 	ldp	x19, x20, [sp, #16]
    338c:	a8c27bfd 	ldp	x29, x30, [sp], #32
    3390:	17ffffa7 	b	322c <check_res.constprop.0>
    3394:	129ffe00 	mov	w0, #0xffff000f            	// #-65521
